

Microchip MPLAB XC8 Assembler V2.46 build 20240104201356 
                                                                                               Mon Apr 08 13:13:30 2024

Microchip MPLAB XC8 C Compiler v2.46 (Free license) build 20240104201356 Og1 
     1                           	processor	16F877A
     2                           	pagewidth 120
     3                           	opt	flic
     4                           	psect	idataBANK0,global,class=CODE,delta=2,noexec
     5                           	psect	idataBANK1,global,class=CODE,delta=2,noexec
     6                           	psect	strings,global,class=STRING,delta=2,noexec
     7                           	psect	stringtext,global,reloc=256,class=STRCODE,delta=2,noexec
     8                           	psect	cinit,global,class=CODE,merge=1,delta=2
     9                           	psect	bssCOMMON,global,class=COMMON,space=1,delta=1,noexec
    10                           	psect	bssBANK0,global,class=BANK0,space=1,delta=1,noexec
    11                           	psect	dataBANK0,global,class=BANK0,space=1,delta=1,noexec
    12                           	psect	bssBANK1,global,class=BANK1,space=1,delta=1,noexec
    13                           	psect	dataBANK1,global,class=BANK1,space=1,delta=1,noexec
    14                           	psect	inittext,global,class=CODE,delta=2
    15                           	psect	clrtext,global,class=CODE,delta=2
    16                           	psect	cstackBANK1,global,class=BANK1,space=1,delta=1,noexec
    17                           	psect	cstackCOMMON,global,class=COMMON,space=1,delta=1,noexec
    18                           	psect	cstackBANK0,global,class=BANK0,space=1,delta=1,noexec
    19                           	psect	maintext,global,class=CODE,split=1,delta=2
    20                           	psect	text1,local,class=CODE,merge=1,delta=2
    21                           	psect	text2,local,class=CODE,merge=1,delta=2,group=2
    22                           	psect	text3,local,class=CODE,merge=1,delta=2
    23                           	psect	text4,local,class=CODE,merge=1,delta=2
    24                           	psect	text5,local,class=CODE,merge=1,delta=2
    25                           	psect	text6,local,class=CODE,merge=1,delta=2
    26                           	psect	text7,local,class=CODE,merge=1,delta=2
    27                           	psect	text8,local,class=CODE,merge=1,delta=2
    28                           	psect	text9,local,class=CODE,merge=1,delta=2
    29                           	psect	text10,local,class=CODE,merge=1,delta=2
    30                           	psect	text11,local,class=CODE,merge=1,delta=2
    31                           	psect	text12,local,class=CODE,merge=1,delta=2
    32                           	psect	text13,local,class=CODE,merge=1,delta=2
    33                           	psect	text14,local,class=CODE,merge=1,delta=2,group=1
    34                           	psect	text15,local,class=CODE,merge=1,delta=2
    35                           	psect	text16,local,class=CODE,merge=1,delta=2
    36                           	psect	text17,local,class=CODE,merge=1,delta=2
    37                           	psect	text18,local,class=CODE,merge=1,delta=2
    38                           	psect	text19,local,class=CODE,merge=1,delta=2
    39                           	psect	text20,local,class=CODE,merge=1,delta=2
    40                           	psect	text21,local,class=CODE,merge=1,delta=2
    41                           	psect	text22,local,class=CODE,merge=1,delta=2
    42                           	psect	text23,local,class=CODE,merge=1,delta=2
    43                           	psect	text24,local,class=CODE,merge=1,delta=2,group=1
    44                           	psect	text25,local,class=CODE,merge=1,delta=2
    45                           	psect	text26,local,class=CODE,merge=1,delta=2
    46                           	psect	text27,local,class=CODE,merge=1,delta=2,group=1
    47                           	psect	text28,local,class=CODE,merge=1,delta=2,group=1
    48                           	psect	text29,local,class=CODE,merge=1,delta=2
    49                           	psect	text30,local,class=CODE,merge=1,delta=2
    50                           	psect	text31,local,class=CODE,merge=1,delta=2
    51                           	psect	text32,local,class=CODE,merge=1,delta=2
    52                           	psect	text33,local,class=CODE,merge=1,delta=2
    53                           	psect	text34,local,class=CODE,merge=1,delta=2
    54                           	psect	text35,local,class=CODE,merge=1,delta=2
    55                           	psect	text36,local,class=CODE,merge=1,delta=2,group=1
    56                           	psect	text37,local,class=CODE,merge=1,delta=2,group=1
    57                           	psect	text38,local,class=CODE,merge=1,delta=2,group=1
    58                           	psect	text39,local,class=CODE,merge=1,delta=2
    59                           	psect	text40,local,class=CODE,merge=1,delta=2,group=2
    60                           	psect	text41,local,class=CODE,merge=1,delta=2,group=2
    61                           	psect	text42,local,class=CODE,merge=1,delta=2
    62                           	psect	text43,local,class=CODE,merge=1,delta=2
    63                           	psect	text44,local,class=CODE,merge=1,delta=2
    64                           	psect	text45,local,class=CODE,merge=1,delta=2
    65                           	psect	text46,local,class=CODE,merge=1,delta=2
    66                           	psect	text47,local,class=CODE,merge=1,delta=2
    67                           	psect	text48,local,class=CODE,merge=1,delta=2
    68                           	psect	text49,local,class=CODE,merge=1,delta=2
    69                           	psect	text50,local,class=CODE,merge=1,delta=2
    70                           	psect	text51,local,class=CODE,merge=1,delta=2
    71                           	psect	intentry,global,class=CODE,delta=2
    72                           	psect	idloc,global,abs,ovrld,class=IDLOC,space=5,delta=2,noexec
    73                           	psect	config,global,abs,ovrld,class=CONFIG,space=4,delta=2,noexec
    74                           	dabs	1,0x7E,2
    75     0000                     
    76                           ; Version 2.40
    77                           ; Generated 17/11/2021 GMT
    78                           ; 
    79                           ; Copyright © 2021, Microchip Technology Inc. and its subsidiaries ("Microchip")
    80                           ; All rights reserved.
    81                           ; 
    82                           ; This software is developed by Microchip Technology Inc. and its subsidiaries ("Microch
      +                          ip").
    83                           ; 
    84                           ; Redistribution and use in source and binary forms, with or without modification, are
    85                           ; permitted provided that the following conditions are met:
    86                           ; 
    87                           ;     1. Redistributions of source code must retain the above copyright notice, this lis
      +                          t of
    88                           ;        conditions and the following disclaimer.
    89                           ; 
    90                           ;     2. Redistributions in binary form must reproduce the above copyright notice, this 
      +                          list
    91                           ;        of conditions and the following disclaimer in the documentation and/or other
    92                           ;        materials provided with the distribution. Publication is not required when
    93                           ;        this file is used in an embedded application.
    94                           ; 
    95                           ;     3. Microchip's name may not be used to endorse or promote products derived from th
      +                          is
    96                           ;        software without specific prior written permission.
    97                           ; 
    98                           ; THIS SOFTWARE IS PROVIDED BY MICROCHIP "AS IS" AND ANY EXPRESS OR IMPLIED WARRANTIES,
    99                           ; INCLUDING, BUT NOT LIMITED TO, THE IMPLIED WARRANTIES OF MERCHANTABILITY AND FITNESS F
      +                          OR
   100                           ; PURPOSE ARE DISCLAIMED.  IN NO EVENT SHALL MICROCHIP BE LIABLE FOR ANY DIRECT, INDIREC
      +                          T,
   101                           ; INCIDENTAL, SPECIAL, EXEMPLARY, OR CONSEQUENTIAL DAMAGES (INCLUDING BUT NOT LIMITED TO
   102                           ; PROCUREMENT OF SUBSTITUTE GOODS OR SERVICES; LOSS OF USE, DATA OR PROFITS; OR BUSINESS
   103                           ; INTERRUPTION) HOWSOEVER CAUSED AND ON ANY THEORY OF LIABILITY, WHETHER IN CONTRACT, ST
      +                          RICT
   104                           ; LIABILITY, OR TORT (INCLUDING NEGLIGENCE OR OTHERWISE) ARISING IN ANY WAY OUT OF THE U
      +                          SE OF
   105                           ; THIS SOFTWARE, EVEN IF ADVISED OF THE POSSIBILITY OF SUCH DAMAGE.
   106                           ; 
   107                           ; 
   108                           ; Code-generator required, PIC16F877A Definitions
   109                           ; 
   110                           ; SFR Addresses
   111     0000                     	;# 
   112     0001                     	;# 
   113     0002                     	;# 
   114     0003                     	;# 
   115     0004                     	;# 
   116     0005                     	;# 
   117     0006                     	;# 
   118     0007                     	;# 
   119     0008                     	;# 
   120     0009                     	;# 
   121     000A                     	;# 
   122     000B                     	;# 
   123     000C                     	;# 
   124     000D                     	;# 
   125     000E                     	;# 
   126     000E                     	;# 
   127     000F                     	;# 
   128     0010                     	;# 
   129     0011                     	;# 
   130     0012                     	;# 
   131     0013                     	;# 
   132     0014                     	;# 
   133     0015                     	;# 
   134     0015                     	;# 
   135     0016                     	;# 
   136     0017                     	;# 
   137     0018                     	;# 
   138     0019                     	;# 
   139     001A                     	;# 
   140     001B                     	;# 
   141     001B                     	;# 
   142     001C                     	;# 
   143     001D                     	;# 
   144     001E                     	;# 
   145     001F                     	;# 
   146     0081                     	;# 
   147     0085                     	;# 
   148     0086                     	;# 
   149     0087                     	;# 
   150     0088                     	;# 
   151     0089                     	;# 
   152     008C                     	;# 
   153     008D                     	;# 
   154     008E                     	;# 
   155     0091                     	;# 
   156     0092                     	;# 
   157     0093                     	;# 
   158     0094                     	;# 
   159     0098                     	;# 
   160     0099                     	;# 
   161     009C                     	;# 
   162     009D                     	;# 
   163     009E                     	;# 
   164     009F                     	;# 
   165     010C                     	;# 
   166     010D                     	;# 
   167     010E                     	;# 
   168     010F                     	;# 
   169     018C                     	;# 
   170     018D                     	;# 
   171     0000                     	;# 
   172     0001                     	;# 
   173     0002                     	;# 
   174     0003                     	;# 
   175     0004                     	;# 
   176     0005                     	;# 
   177     0006                     	;# 
   178     0007                     	;# 
   179     0008                     	;# 
   180     0009                     	;# 
   181     000A                     	;# 
   182     000B                     	;# 
   183     000C                     	;# 
   184     000D                     	;# 
   185     000E                     	;# 
   186     000E                     	;# 
   187     000F                     	;# 
   188     0010                     	;# 
   189     0011                     	;# 
   190     0012                     	;# 
   191     0013                     	;# 
   192     0014                     	;# 
   193     0015                     	;# 
   194     0015                     	;# 
   195     0016                     	;# 
   196     0017                     	;# 
   197     0018                     	;# 
   198     0019                     	;# 
   199     001A                     	;# 
   200     001B                     	;# 
   201     001B                     	;# 
   202     001C                     	;# 
   203     001D                     	;# 
   204     001E                     	;# 
   205     001F                     	;# 
   206     0081                     	;# 
   207     0085                     	;# 
   208     0086                     	;# 
   209     0087                     	;# 
   210     0088                     	;# 
   211     0089                     	;# 
   212     008C                     	;# 
   213     008D                     	;# 
   214     008E                     	;# 
   215     0091                     	;# 
   216     0092                     	;# 
   217     0093                     	;# 
   218     0094                     	;# 
   219     0098                     	;# 
   220     0099                     	;# 
   221     009C                     	;# 
   222     009D                     	;# 
   223     009E                     	;# 
   224     009F                     	;# 
   225     010C                     	;# 
   226     010D                     	;# 
   227     010E                     	;# 
   228     010F                     	;# 
   229     018C                     	;# 
   230     018D                     	;# 
   231     0000                     	;# 
   232     0001                     	;# 
   233     0002                     	;# 
   234     0003                     	;# 
   235     0004                     	;# 
   236     0005                     	;# 
   237     0006                     	;# 
   238     0007                     	;# 
   239     0008                     	;# 
   240     0009                     	;# 
   241     000A                     	;# 
   242     000B                     	;# 
   243     000C                     	;# 
   244     000D                     	;# 
   245     000E                     	;# 
   246     000E                     	;# 
   247     000F                     	;# 
   248     0010                     	;# 
   249     0011                     	;# 
   250     0012                     	;# 
   251     0013                     	;# 
   252     0014                     	;# 
   253     0015                     	;# 
   254     0015                     	;# 
   255     0016                     	;# 
   256     0017                     	;# 
   257     0018                     	;# 
   258     0019                     	;# 
   259     001A                     	;# 
   260     001B                     	;# 
   261     001B                     	;# 
   262     001C                     	;# 
   263     001D                     	;# 
   264     001E                     	;# 
   265     001F                     	;# 
   266     0081                     	;# 
   267     0085                     	;# 
   268     0086                     	;# 
   269     0087                     	;# 
   270     0088                     	;# 
   271     0089                     	;# 
   272     008C                     	;# 
   273     008D                     	;# 
   274     008E                     	;# 
   275     0091                     	;# 
   276     0092                     	;# 
   277     0093                     	;# 
   278     0094                     	;# 
   279     0098                     	;# 
   280     0099                     	;# 
   281     009C                     	;# 
   282     009D                     	;# 
   283     009E                     	;# 
   284     009F                     	;# 
   285     010C                     	;# 
   286     010D                     	;# 
   287     010E                     	;# 
   288     010F                     	;# 
   289     018C                     	;# 
   290     018D                     	;# 
   291     0000                     	;# 
   292     0001                     	;# 
   293     0002                     	;# 
   294     0003                     	;# 
   295     0004                     	;# 
   296     0005                     	;# 
   297     0006                     	;# 
   298     0007                     	;# 
   299     0008                     	;# 
   300     0009                     	;# 
   301     000A                     	;# 
   302     000B                     	;# 
   303     000C                     	;# 
   304     000D                     	;# 
   305     000E                     	;# 
   306     000E                     	;# 
   307     000F                     	;# 
   308     0010                     	;# 
   309     0011                     	;# 
   310     0012                     	;# 
   311     0013                     	;# 
   312     0014                     	;# 
   313     0015                     	;# 
   314     0015                     	;# 
   315     0016                     	;# 
   316     0017                     	;# 
   317     0018                     	;# 
   318     0019                     	;# 
   319     001A                     	;# 
   320     001B                     	;# 
   321     001B                     	;# 
   322     001C                     	;# 
   323     001D                     	;# 
   324     001E                     	;# 
   325     001F                     	;# 
   326     0081                     	;# 
   327     0085                     	;# 
   328     0086                     	;# 
   329     0087                     	;# 
   330     0088                     	;# 
   331     0089                     	;# 
   332     008C                     	;# 
   333     008D                     	;# 
   334     008E                     	;# 
   335     0091                     	;# 
   336     0092                     	;# 
   337     0093                     	;# 
   338     0094                     	;# 
   339     0098                     	;# 
   340     0099                     	;# 
   341     009C                     	;# 
   342     009D                     	;# 
   343     009E                     	;# 
   344     009F                     	;# 
   345     010C                     	;# 
   346     010D                     	;# 
   347     010E                     	;# 
   348     010F                     	;# 
   349     018C                     	;# 
   350     018D                     	;# 
   351     0000                     	;# 
   352     0001                     	;# 
   353     0002                     	;# 
   354     0003                     	;# 
   355     0004                     	;# 
   356     0005                     	;# 
   357     0006                     	;# 
   358     0007                     	;# 
   359     0008                     	;# 
   360     0009                     	;# 
   361     000A                     	;# 
   362     000B                     	;# 
   363     000C                     	;# 
   364     000D                     	;# 
   365     000E                     	;# 
   366     000E                     	;# 
   367     000F                     	;# 
   368     0010                     	;# 
   369     0011                     	;# 
   370     0012                     	;# 
   371     0013                     	;# 
   372     0014                     	;# 
   373     0015                     	;# 
   374     0015                     	;# 
   375     0016                     	;# 
   376     0017                     	;# 
   377     0018                     	;# 
   378     0019                     	;# 
   379     001A                     	;# 
   380     001B                     	;# 
   381     001B                     	;# 
   382     001C                     	;# 
   383     001D                     	;# 
   384     001E                     	;# 
   385     001F                     	;# 
   386     0081                     	;# 
   387     0085                     	;# 
   388     0086                     	;# 
   389     0087                     	;# 
   390     0088                     	;# 
   391     0089                     	;# 
   392     008C                     	;# 
   393     008D                     	;# 
   394     008E                     	;# 
   395     0091                     	;# 
   396     0092                     	;# 
   397     0093                     	;# 
   398     0094                     	;# 
   399     0098                     	;# 
   400     0099                     	;# 
   401     009C                     	;# 
   402     009D                     	;# 
   403     009E                     	;# 
   404     009F                     	;# 
   405     010C                     	;# 
   406     010D                     	;# 
   407     010E                     	;# 
   408     010F                     	;# 
   409     018C                     	;# 
   410     018D                     	;# 
   411     0000                     	;# 
   412     0001                     	;# 
   413     0002                     	;# 
   414     0003                     	;# 
   415     0004                     	;# 
   416     0005                     	;# 
   417     0006                     	;# 
   418     0007                     	;# 
   419     0008                     	;# 
   420     0009                     	;# 
   421     000A                     	;# 
   422     000B                     	;# 
   423     000C                     	;# 
   424     000D                     	;# 
   425     000E                     	;# 
   426     000E                     	;# 
   427     000F                     	;# 
   428     0010                     	;# 
   429     0011                     	;# 
   430     0012                     	;# 
   431     0013                     	;# 
   432     0014                     	;# 
   433     0015                     	;# 
   434     0015                     	;# 
   435     0016                     	;# 
   436     0017                     	;# 
   437     0018                     	;# 
   438     0019                     	;# 
   439     001A                     	;# 
   440     001B                     	;# 
   441     001B                     	;# 
   442     001C                     	;# 
   443     001D                     	;# 
   444     001E                     	;# 
   445     001F                     	;# 
   446     0081                     	;# 
   447     0085                     	;# 
   448     0086                     	;# 
   449     0087                     	;# 
   450     0088                     	;# 
   451     0089                     	;# 
   452     008C                     	;# 
   453     008D                     	;# 
   454     008E                     	;# 
   455     0091                     	;# 
   456     0092                     	;# 
   457     0093                     	;# 
   458     0094                     	;# 
   459     0098                     	;# 
   460     0099                     	;# 
   461     009C                     	;# 
   462     009D                     	;# 
   463     009E                     	;# 
   464     009F                     	;# 
   465     010C                     	;# 
   466     010D                     	;# 
   467     010E                     	;# 
   468     010F                     	;# 
   469     018C                     	;# 
   470     018D                     	;# 
   471     0000                     	;# 
   472     0001                     	;# 
   473     0002                     	;# 
   474     0003                     	;# 
   475     0004                     	;# 
   476     0005                     	;# 
   477     0006                     	;# 
   478     0007                     	;# 
   479     0008                     	;# 
   480     0009                     	;# 
   481     000A                     	;# 
   482     000B                     	;# 
   483     000C                     	;# 
   484     000D                     	;# 
   485     000E                     	;# 
   486     000E                     	;# 
   487     000F                     	;# 
   488     0010                     	;# 
   489     0011                     	;# 
   490     0012                     	;# 
   491     0013                     	;# 
   492     0014                     	;# 
   493     0015                     	;# 
   494     0015                     	;# 
   495     0016                     	;# 
   496     0017                     	;# 
   497     0018                     	;# 
   498     0019                     	;# 
   499     001A                     	;# 
   500     001B                     	;# 
   501     001B                     	;# 
   502     001C                     	;# 
   503     001D                     	;# 
   504     001E                     	;# 
   505     001F                     	;# 
   506     0081                     	;# 
   507     0085                     	;# 
   508     0086                     	;# 
   509     0087                     	;# 
   510     0088                     	;# 
   511     0089                     	;# 
   512     008C                     	;# 
   513     008D                     	;# 
   514     008E                     	;# 
   515     0091                     	;# 
   516     0092                     	;# 
   517     0093                     	;# 
   518     0094                     	;# 
   519     0098                     	;# 
   520     0099                     	;# 
   521     009C                     	;# 
   522     009D                     	;# 
   523     009E                     	;# 
   524     009F                     	;# 
   525     010C                     	;# 
   526     010D                     	;# 
   527     010E                     	;# 
   528     010F                     	;# 
   529     018C                     	;# 
   530     018D                     	;# 
   531     0000                     	;# 
   532     0001                     	;# 
   533     0002                     	;# 
   534     0003                     	;# 
   535     0004                     	;# 
   536     0005                     	;# 
   537     0006                     	;# 
   538     0007                     	;# 
   539     0008                     	;# 
   540     0009                     	;# 
   541     000A                     	;# 
   542     000B                     	;# 
   543     000C                     	;# 
   544     000D                     	;# 
   545     000E                     	;# 
   546     000E                     	;# 
   547     000F                     	;# 
   548     0010                     	;# 
   549     0011                     	;# 
   550     0012                     	;# 
   551     0013                     	;# 
   552     0014                     	;# 
   553     0015                     	;# 
   554     0015                     	;# 
   555     0016                     	;# 
   556     0017                     	;# 
   557     0018                     	;# 
   558     0019                     	;# 
   559     001A                     	;# 
   560     001B                     	;# 
   561     001B                     	;# 
   562     001C                     	;# 
   563     001D                     	;# 
   564     001E                     	;# 
   565     001F                     	;# 
   566     0081                     	;# 
   567     0085                     	;# 
   568     0086                     	;# 
   569     0087                     	;# 
   570     0088                     	;# 
   571     0089                     	;# 
   572     008C                     	;# 
   573     008D                     	;# 
   574     008E                     	;# 
   575     0091                     	;# 
   576     0092                     	;# 
   577     0093                     	;# 
   578     0094                     	;# 
   579     0098                     	;# 
   580     0099                     	;# 
   581     009C                     	;# 
   582     009D                     	;# 
   583     009E                     	;# 
   584     009F                     	;# 
   585     010C                     	;# 
   586     010D                     	;# 
   587     010E                     	;# 
   588     010F                     	;# 
   589     018C                     	;# 
   590     018D                     	;# 
   591     0000                     	;# 
   592     0001                     	;# 
   593     0002                     	;# 
   594     0003                     	;# 
   595     0004                     	;# 
   596     0005                     	;# 
   597     0006                     	;# 
   598     0007                     	;# 
   599     0008                     	;# 
   600     0009                     	;# 
   601     000A                     	;# 
   602     000B                     	;# 
   603     000C                     	;# 
   604     000D                     	;# 
   605     000E                     	;# 
   606     000E                     	;# 
   607     000F                     	;# 
   608     0010                     	;# 
   609     0011                     	;# 
   610     0012                     	;# 
   611     0013                     	;# 
   612     0014                     	;# 
   613     0015                     	;# 
   614     0015                     	;# 
   615     0016                     	;# 
   616     0017                     	;# 
   617     0018                     	;# 
   618     0019                     	;# 
   619     001A                     	;# 
   620     001B                     	;# 
   621     001B                     	;# 
   622     001C                     	;# 
   623     001D                     	;# 
   624     001E                     	;# 
   625     001F                     	;# 
   626     0081                     	;# 
   627     0085                     	;# 
   628     0086                     	;# 
   629     0087                     	;# 
   630     0088                     	;# 
   631     0089                     	;# 
   632     008C                     	;# 
   633     008D                     	;# 
   634     008E                     	;# 
   635     0091                     	;# 
   636     0092                     	;# 
   637     0093                     	;# 
   638     0094                     	;# 
   639     0098                     	;# 
   640     0099                     	;# 
   641     009C                     	;# 
   642     009D                     	;# 
   643     009E                     	;# 
   644     009F                     	;# 
   645     010C                     	;# 
   646     010D                     	;# 
   647     010E                     	;# 
   648     010F                     	;# 
   649     018C                     	;# 
   650     018D                     	;# 
   651     0000                     	;# 
   652     0001                     	;# 
   653     0002                     	;# 
   654     0003                     	;# 
   655     0004                     	;# 
   656     0005                     	;# 
   657     0006                     	;# 
   658     0007                     	;# 
   659     0008                     	;# 
   660     0009                     	;# 
   661     000A                     	;# 
   662     000B                     	;# 
   663     000C                     	;# 
   664     000D                     	;# 
   665     000E                     	;# 
   666     000E                     	;# 
   667     000F                     	;# 
   668     0010                     	;# 
   669     0011                     	;# 
   670     0012                     	;# 
   671     0013                     	;# 
   672     0014                     	;# 
   673     0015                     	;# 
   674     0015                     	;# 
   675     0016                     	;# 
   676     0017                     	;# 
   677     0018                     	;# 
   678     0019                     	;# 
   679     001A                     	;# 
   680     001B                     	;# 
   681     001B                     	;# 
   682     001C                     	;# 
   683     001D                     	;# 
   684     001E                     	;# 
   685     001F                     	;# 
   686     0081                     	;# 
   687     0085                     	;# 
   688     0086                     	;# 
   689     0087                     	;# 
   690     0088                     	;# 
   691     0089                     	;# 
   692     008C                     	;# 
   693     008D                     	;# 
   694     008E                     	;# 
   695     0091                     	;# 
   696     0092                     	;# 
   697     0093                     	;# 
   698     0094                     	;# 
   699     0098                     	;# 
   700     0099                     	;# 
   701     009C                     	;# 
   702     009D                     	;# 
   703     009E                     	;# 
   704     009F                     	;# 
   705     010C                     	;# 
   706     010D                     	;# 
   707     010E                     	;# 
   708     010F                     	;# 
   709     018C                     	;# 
   710     018D                     	;# 
   711     0000                     	;# 
   712     0001                     	;# 
   713     0002                     	;# 
   714     0003                     	;# 
   715     0004                     	;# 
   716     0005                     	;# 
   717     0006                     	;# 
   718     0007                     	;# 
   719     0008                     	;# 
   720     0009                     	;# 
   721     000A                     	;# 
   722     000B                     	;# 
   723     000C                     	;# 
   724     000D                     	;# 
   725     000E                     	;# 
   726     000E                     	;# 
   727     000F                     	;# 
   728     0010                     	;# 
   729     0011                     	;# 
   730     0012                     	;# 
   731     0013                     	;# 
   732     0014                     	;# 
   733     0015                     	;# 
   734     0015                     	;# 
   735     0016                     	;# 
   736     0017                     	;# 
   737     0018                     	;# 
   738     0019                     	;# 
   739     001A                     	;# 
   740     001B                     	;# 
   741     001B                     	;# 
   742     001C                     	;# 
   743     001D                     	;# 
   744     001E                     	;# 
   745     001F                     	;# 
   746     0081                     	;# 
   747     0085                     	;# 
   748     0086                     	;# 
   749     0087                     	;# 
   750     0088                     	;# 
   751     0089                     	;# 
   752     008C                     	;# 
   753     008D                     	;# 
   754     008E                     	;# 
   755     0091                     	;# 
   756     0092                     	;# 
   757     0093                     	;# 
   758     0094                     	;# 
   759     0098                     	;# 
   760     0099                     	;# 
   761     009C                     	;# 
   762     009D                     	;# 
   763     009E                     	;# 
   764     009F                     	;# 
   765     010C                     	;# 
   766     010D                     	;# 
   767     010E                     	;# 
   768     010F                     	;# 
   769     018C                     	;# 
   770     018D                     	;# 
   771     0000                     	;# 
   772     0001                     	;# 
   773     0002                     	;# 
   774     0003                     	;# 
   775     0004                     	;# 
   776     0005                     	;# 
   777     0006                     	;# 
   778     0007                     	;# 
   779     0008                     	;# 
   780     0009                     	;# 
   781     000A                     	;# 
   782     000B                     	;# 
   783     000C                     	;# 
   784     000D                     	;# 
   785     000E                     	;# 
   786     000E                     	;# 
   787     000F                     	;# 
   788     0010                     	;# 
   789     0011                     	;# 
   790     0012                     	;# 
   791     0013                     	;# 
   792     0014                     	;# 
   793     0015                     	;# 
   794     0015                     	;# 
   795     0016                     	;# 
   796     0017                     	;# 
   797     0018                     	;# 
   798     0019                     	;# 
   799     001A                     	;# 
   800     001B                     	;# 
   801     001B                     	;# 
   802     001C                     	;# 
   803     001D                     	;# 
   804     001E                     	;# 
   805     001F                     	;# 
   806     0081                     	;# 
   807     0085                     	;# 
   808     0086                     	;# 
   809     0087                     	;# 
   810     0088                     	;# 
   811     0089                     	;# 
   812     008C                     	;# 
   813     008D                     	;# 
   814     008E                     	;# 
   815     0091                     	;# 
   816     0092                     	;# 
   817     0093                     	;# 
   818     0094                     	;# 
   819     0098                     	;# 
   820     0099                     	;# 
   821     009C                     	;# 
   822     009D                     	;# 
   823     009E                     	;# 
   824     009F                     	;# 
   825     010C                     	;# 
   826     010D                     	;# 
   827     010E                     	;# 
   828     010F                     	;# 
   829     018C                     	;# 
   830     018D                     	;# 
   831                           
   832                           	psect	idataBANK0
   833     1120                     __pidataBANK0:
   834                           
   835                           ;initializer for _event_count
   836     1120  34FF               	retlw	255
   837     1121  34FF               	retlw	255
   838                           
   839                           ;initializer for _pos
   840     1122  34FF               	retlw	255
   841     1123  34FF               	retlw	255
   842                           
   843                           ;initializer for login@attempts_rem
   844     1124  3403               	retlw	3
   845                           
   846                           ;initializer for _return_time
   847     1125  3405               	retlw	5
   848                           
   849                           	psect	idataBANK1
   850     08F4                     __pidataBANK1:
   851                           
   852                           ;initializer for _gear
   853     08F4  34E5               	retlw	low (STR_1| (0+32768))
   854     08F5  3488               	retlw	high (STR_1| (0+32768))
   855     08F6  34EE               	retlw	low (STR_2| (0+32768))
   856     08F7  3488               	retlw	high (STR_2| (0+32768))
   857     08F8  34D3               	retlw	low (STR_3| (0+32768))
   858     08F9  3488               	retlw	high (STR_3| (0+32768))
   859     08FA  34D6               	retlw	low (STR_4| (0+32768))
   860     08FB  3488               	retlw	high (STR_4| (0+32768))
   861     08FC  34D9               	retlw	low (STR_5| (0+32768))
   862     08FD  3488               	retlw	high (STR_5| (0+32768))
   863     08FE  34DC               	retlw	low (STR_6| (0+32768))
   864     08FF  3488               	retlw	high (STR_6| (0+32768))
   865                           
   866                           ;initializer for _menu
   867     0900  34B7               	retlw	low (STR_17| (0+32768))
   868     0901  3488               	retlw	high (STR_17| (0+32768))
   869     0902  34A4               	retlw	low (STR_18| (0+32768))
   870     0903  3488               	retlw	high (STR_18| (0+32768))
   871     0904  347D               	retlw	low (STR_19| (0+32768))
   872     0905  3488               	retlw	high (STR_19| (0+32768))
   873     0906  3435               	retlw	low (STR_20| (0+32768))
   874     0907  3488               	retlw	high (STR_20| (0+32768))
   875     0908  34AE               	retlw	low (STR_21| (0+32768))
   876     0909  3488               	retlw	high (STR_21| (0+32768))
   877                           
   878                           ;initializer for main@F1249
   879     090A  344F               	retlw	79
   880     090B  344E               	retlw	78
   881     090C  3400               	retlw	0
   882     0019                     _TXREG	set	25
   883     001A                     _RCREG	set	26
   884     0013                     _SSPBUF	set	19
   885     0006                     _PORTB	set	6
   886     0008                     _PORTD	set	8
   887     001E                     _ADRESH	set	30
   888     0064                     _TXIF	set	100
   889     0065                     _RCIF	set	101
   890     00C4                     _CREN	set	196
   891     00C7                     _SPEN	set	199
   892     0091                     _T2CKPS1	set	145
   893     0090                     _T2CKPS0	set	144
   894     0061                     _TMR2IF	set	97
   895     00A5                     _SSPEN	set	165
   896     00A3                     _SSPM3	set	163
   897     0049                     _RE1	set	73
   898     004A                     _RE2	set	74
   899     00FA                     _nDONE	set	250
   900     00FA                     _GO	set	250
   901     00F8                     _ADON	set	248
   902     0092                     _TMR2ON	set	146
   903     005F                     _GIE	set	95
   904     005E                     _PEIE	set	94
   905     0099                     _SPBRG	set	153
   906     0092                     _PR2	set	146
   907     0091                     _SSPCON2	set	145
   908     0093                     _SSPADD	set	147
   909     0086                     _TRISB	set	134
   910     0088                     _TRISD	set	136
   911     009E                     _ADRESL	set	158
   912     0461                     _TMR2IE	set	1121
   913     048E                     _ACKSTAT	set	1166
   914     048C                     _ACKEN	set	1164
   915     048D                     _ACKDT	set	1165
   916     048B                     _RCEN	set	1163
   917     048A                     _PEN	set	1162
   918     0488                     _SEN	set	1160
   919     04A2                     _R_nW	set	1186
   920     0449                     _TRISE1	set	1097
   921     044A                     _TRISE2	set	1098
   922     04FF                     _ADFM	set	1279
   923                           
   924                           	psect	strings
   925     1000                     __pstrings:
   926     1000                     stringtab:
   927     1000                     __stringtab:
   928                           
   929                           ;	String table - string pointers are 2 bytes each
   930     1000  1BFF               	btfsc	btemp+1,7
   931     1001  280A               	ljmp	stringcode
   932     1002  1383               	bcf	3,7
   933     1003  187F               	btfsc	btemp+1,0
   934     1004  1783               	bsf	3,7
   935     1005  0800               	movf	0,w
   936     1006  0A84               	incf	4,f
   937     1007  1903               	skipnz
   938     1008  0AFF               	incf	btemp+1,f
   939     1009  0008               	return
   940     100A                     stringcode:
   941     100A  087F               	movf	btemp+1,w
   942     100B  397F               	andlw	127
   943     100C  008A               	movwf	10
   944     100D  0804               	movf	4,w
   945     100E  0A84               	incf	4,f
   946     100F  1903               	skipnz
   947     1010  0AFF               	incf	btemp+1,f
   948     1011  0082               	movwf	2
   949     1012                     __stringbase:
   950     1012                     __end_of__stringtab:
   951                           
   952                           	psect	stringtext
   953     0700                     __pstringtext:
   954     0700                     STR_36:
   955     0700  3423               	retlw	35	;'#'
   956     0701  3420               	retlw	32	;' '
   957     0702  3420               	retlw	32	;' '
   958     0703  3420               	retlw	32	;' '
   959     0704  3420               	retlw	32	;' '
   960     0705  3420               	retlw	32	;' '
   961     0706  3454               	retlw	84	;'T'
   962     0707  3469               	retlw	105	;'i'
   963     0708  346D               	retlw	109	;'m'
   964     0709  3465               	retlw	101	;'e'
   965     070A  3420               	retlw	32	;' '
   966     070B  3420               	retlw	32	;' '
   967     070C  3420               	retlw	32	;' '
   968     070D  3420               	retlw	32	;' '
   969     070E  3420               	retlw	32	;' '
   970     070F  3420               	retlw	32	;' '
   971     0710  3420               	retlw	32	;' '
   972     0711  3420               	retlw	32	;' '
   973     0712  3445               	retlw	69	;'E'
   974     0713  3476               	retlw	118	;'v'
   975     0714  3465               	retlw	101	;'e'
   976     0715  346E               	retlw	110	;'n'
   977     0716  3474               	retlw	116	;'t'
   978     0717  3420               	retlw	32	;' '
   979     0718  3420               	retlw	32	;' '
   980     0719  3420               	retlw	32	;' '
   981     071A  3420               	retlw	32	;' '
   982     071B  3420               	retlw	32	;' '
   983     071C  3420               	retlw	32	;' '
   984     071D  3420               	retlw	32	;' '
   985     071E  3453               	retlw	83	;'S'
   986     071F  3470               	retlw	112	;'p'
   987     0720  3465               	retlw	101	;'e'
   988     0721  3465               	retlw	101	;'e'
   989     0722  3464               	retlw	100	;'d'
   990     0723  3400               	retlw	0
   991     0724                     STR_43:
   992     0724  3420               	retlw	32	;' '
   993     0725  3420               	retlw	32	;' '
   994     0726  3420               	retlw	32	;' '
   995     0727  3420               	retlw	32	;' '
   996     0728  3420               	retlw	32	;' '
   997     0729  3420               	retlw	32	;' '
   998     072A  3420               	retlw	32	;' '
   999     072B  3420               	retlw	32	;' '
  1000     072C  3420               	retlw	32	;' '
  1001     072D  3420               	retlw	32	;' '
  1002     072E  3420               	retlw	32	;' '
  1003     072F  3420               	retlw	32	;' '
  1004     0730  3420               	retlw	32	;' '
  1005     0731  3420               	retlw	32	;' '
  1006     0732  3420               	retlw	32	;' '
  1007     0733  3420               	retlw	32	;' '
  1008     0734  3420               	retlw	32	;' '
  1009     0735  3400               	retlw	0
  1010     0736                     STR_34:
  1011     0736  344E               	retlw	78	;'N'
  1012     0737  346F               	retlw	111	;'o'
  1013     0738  3420               	retlw	32	;' '
  1014     0739  346C               	retlw	108	;'l'
  1015     073A  346F               	retlw	111	;'o'
  1016     073B  3467               	retlw	103	;'g'
  1017     073C  3473               	retlw	115	;'s'
  1018     073D  3420               	retlw	32	;' '
  1019     073E  3461               	retlw	97	;'a'
  1020     073F  3476               	retlw	118	;'v'
  1021     0740  3461               	retlw	97	;'a'
  1022     0741  3469               	retlw	105	;'i'
  1023     0742  346C               	retlw	108	;'l'
  1024     0743  3461               	retlw	97	;'a'
  1025     0744  3462               	retlw	98	;'b'
  1026     0745  346C               	retlw	108	;'l'
  1027     0746  3465               	retlw	101	;'e'
  1028     0747  3400               	retlw	0
  1029     0748                     STR_29:
  1030     0748  3420               	retlw	32	;' '
  1031     0749  3420               	retlw	32	;' '
  1032     074A  3420               	retlw	32	;' '
  1033     074B  3420               	retlw	32	;' '
  1034     074C  344E               	retlw	78	;'N'
  1035     074D  346F               	retlw	111	;'o'
  1036     074E  3420               	retlw	32	;' '
  1037     074F  346C               	retlw	108	;'l'
  1038     0750  346F               	retlw	111	;'o'
  1039     0751  3467               	retlw	103	;'g'
  1040     0752  3473               	retlw	115	;'s'
  1041     0753  3420               	retlw	32	;' '
  1042     0754  3420               	retlw	32	;' '
  1043     0755  3420               	retlw	32	;' '
  1044     0756  3420               	retlw	32	;' '
  1045     0757  3420               	retlw	32	;' '
  1046     0758  3400               	retlw	0
  1047     0759                     STR_41:
  1048     0759  3445               	retlw	69	;'E'
  1049     075A  346E               	retlw	110	;'n'
  1050     075B  3474               	retlw	116	;'t'
  1051     075C  3465               	retlw	101	;'e'
  1052     075D  3472               	retlw	114	;'r'
  1053     075E  3420               	retlw	32	;' '
  1054     075F  346E               	retlw	110	;'n'
  1055     0760  3465               	retlw	101	;'e'
  1056     0761  3477               	retlw	119	;'w'
  1057     0762  3420               	retlw	32	;' '
  1058     0763  3470               	retlw	112	;'p'
  1059     0764  3477               	retlw	119	;'w'
  1060     0765  3464               	retlw	100	;'d'
  1061     0766  343A               	retlw	58	;':'
  1062     0767  3420               	retlw	32	;' '
  1063     0768  3420               	retlw	32	;' '
  1064     0769  3400               	retlw	0
  1065     076A                     STR_25:
  1066     076A  3420               	retlw	32	;' '
  1067     076B  3457               	retlw	87	;'W'
  1068     076C  3472               	retlw	114	;'r'
  1069     076D  346F               	retlw	111	;'o'
  1070     076E  346E               	retlw	110	;'n'
  1071     076F  3467               	retlw	103	;'g'
  1072     0770  3420               	retlw	32	;' '
  1073     0771  3450               	retlw	80	;'P'
  1074     0772  3461               	retlw	97	;'a'
  1075     0773  3473               	retlw	115	;'s'
  1076     0774  3473               	retlw	115	;'s'
  1077     0775  3477               	retlw	119	;'w'
  1078     0776  346F               	retlw	111	;'o'
  1079     0777  3472               	retlw	114	;'r'
  1080     0778  3464               	retlw	100	;'d'
  1081     0779  3420               	retlw	32	;' '
  1082     077A  3400               	retlw	0
  1083     077B                     STR_22:
  1084     077B  3420               	retlw	32	;' '
  1085     077C  3420               	retlw	32	;' '
  1086     077D  3454               	retlw	84	;'T'
  1087     077E  3449               	retlw	73	;'I'
  1088     077F  344D               	retlw	77	;'M'
  1089     0780  3445               	retlw	69	;'E'
  1090     0781  3420               	retlw	32	;' '
  1091     0782  3420               	retlw	32	;' '
  1092     0783  3420               	retlw	32	;' '
  1093     0784  3420               	retlw	32	;' '
  1094     0785  3420               	retlw	32	;' '
  1095     0786  3445               	retlw	69	;'E'
  1096     0787  3420               	retlw	32	;' '
  1097     0788  3420               	retlw	32	;' '
  1098     0789  3453               	retlw	83	;'S'
  1099     078A  3450               	retlw	80	;'P'
  1100     078B  3400               	retlw	0
  1101     078C                     STR_45:
  1102     078C  3450               	retlw	80	;'P'
  1103     078D  3461               	retlw	97	;'a'
  1104     078E  3473               	retlw	115	;'s'
  1105     078F  3473               	retlw	115	;'s'
  1106     0790  3477               	retlw	119	;'w'
  1107     0791  346F               	retlw	111	;'o'
  1108     0792  3472               	retlw	114	;'r'
  1109     0793  3464               	retlw	100	;'d'
  1110     0794  3420               	retlw	32	;' '
  1111     0795  3463               	retlw	99	;'c'
  1112     0796  3468               	retlw	104	;'h'
  1113     0797  3461               	retlw	97	;'a'
  1114     0798  346E               	retlw	110	;'n'
  1115     0799  3467               	retlw	103	;'g'
  1116     079A  3465               	retlw	101	;'e'
  1117     079B  3464               	retlw	100	;'d'
  1118     079C  3400               	retlw	0
  1119     079D                     STR_23:
  1120     079D  3459               	retlw	89	;'Y'
  1121     079E  346F               	retlw	111	;'o'
  1122     079F  3475               	retlw	117	;'u'
  1123     07A0  3420               	retlw	32	;' '
  1124     07A1  3441               	retlw	65	;'A'
  1125     07A2  3472               	retlw	114	;'r'
  1126     07A3  3465               	retlw	101	;'e'
  1127     07A4  3420               	retlw	32	;' '
  1128     07A5  3420               	retlw	32	;' '
  1129     07A6  3442               	retlw	66	;'B'
  1130     07A7  346C               	retlw	108	;'l'
  1131     07A8  346F               	retlw	111	;'o'
  1132     07A9  3463               	retlw	99	;'c'
  1133     07AA  346B               	retlw	107	;'k'
  1134     07AB  3465               	retlw	101	;'e'
  1135     07AC  3464               	retlw	100	;'d'
  1136     07AD  3400               	retlw	0
  1137     07AE                     STR_42:
  1138     07AE  3452               	retlw	82	;'R'
  1139     07AF  3465               	retlw	101	;'e'
  1140     07B0  342D               	retlw	45	;'-'
  1141     07B1  3465               	retlw	101	;'e'
  1142     07B2  346E               	retlw	110	;'n'
  1143     07B3  3474               	retlw	116	;'t'
  1144     07B4  3465               	retlw	101	;'e'
  1145     07B5  3472               	retlw	114	;'r'
  1146     07B6  3420               	retlw	32	;' '
  1147     07B7  346E               	retlw	110	;'n'
  1148     07B8  3465               	retlw	101	;'e'
  1149     07B9  3477               	retlw	119	;'w'
  1150     07BA  3420               	retlw	32	;' '
  1151     07BB  3470               	retlw	112	;'p'
  1152     07BC  3477               	retlw	119	;'w'
  1153     07BD  3464               	retlw	100	;'d'
  1154     07BE  3400               	retlw	0
  1155     07BF                     STR_47:
  1156     07BF  3450               	retlw	80	;'P'
  1157     07C0  3461               	retlw	97	;'a'
  1158     07C1  3473               	retlw	115	;'s'
  1159     07C2  3473               	retlw	115	;'s'
  1160     07C3  3477               	retlw	119	;'w'
  1161     07C4  346F               	retlw	111	;'o'
  1162     07C5  3472               	retlw	114	;'r'
  1163     07C6  3464               	retlw	100	;'d'
  1164     07C7  3420               	retlw	32	;' '
  1165     07C8  3420               	retlw	32	;' '
  1166     07C9  3463               	retlw	99	;'c'
  1167     07CA  3468               	retlw	104	;'h'
  1168     07CB  3461               	retlw	97	;'a'
  1169     07CC  346E               	retlw	110	;'n'
  1170     07CD  3467               	retlw	103	;'g'
  1171     07CE  3465               	retlw	101	;'e'
  1172     07CF  3400               	retlw	0
  1173     07D0                     STR_24:
  1174     07D0  3457               	retlw	87	;'W'
  1175     07D1  3461               	retlw	97	;'a'
  1176     07D2  3469               	retlw	105	;'i'
  1177     07D3  3474               	retlw	116	;'t'
  1178     07D4  3420               	retlw	32	;' '
  1179     07D5  3466               	retlw	102	;'f'
  1180     07D6  346F               	retlw	111	;'o'
  1181     07D7  3472               	retlw	114	;'r'
  1182     07D8  342E               	retlw	46	;'.'
  1183     07D9  342E               	retlw	46	;'.'
  1184     07DA  342E               	retlw	46	;'.'
  1185     07DB  3431               	retlw	49	;'1'
  1186     07DC  3435               	retlw	53	;'5'
  1187     07DD  346D               	retlw	109	;'m'
  1188     07DE  3469               	retlw	105	;'i'
  1189     07DF  346E               	retlw	110	;'n'
  1190     07E0  3400               	retlw	0
  1191     07E1                     STR_12:
  1192     07E1  3420               	retlw	32	;' '
  1193     07E2  3420               	retlw	32	;' '
  1194     07E3  3420               	retlw	32	;' '
  1195     07E4  3420               	retlw	32	;' '
  1196     07E5  3420               	retlw	32	;' '
  1197     07E6  3420               	retlw	32	;' '
  1198     07E7  344F               	retlw	79	;'O'
  1199     07E8  3470               	retlw	112	;'p'
  1200     07E9  3465               	retlw	101	;'e'
  1201     07EA  346E               	retlw	110	;'n'
  1202     07EB  3420               	retlw	32	;' '
  1203     07EC  3420               	retlw	32	;' '
  1204     07ED  3420               	retlw	32	;' '
  1205     07EE  3420               	retlw	32	;' '
  1206     07EF  3420               	retlw	32	;' '
  1207     07F0  3420               	retlw	32	;' '
  1208     07F1  3400               	retlw	0
  1209     07F2                     STR_10:
  1210     07F2  3420               	retlw	32	;' '
  1211     07F3  3420               	retlw	32	;' '
  1212     07F4  3420               	retlw	32	;' '
  1213     07F5  3420               	retlw	32	;' '
  1214     07F6  3420               	retlw	32	;' '
  1215     07F7  3420               	retlw	32	;' '
  1216     07F8  344C               	retlw	76	;'L'
  1217     07F9  346F               	retlw	111	;'o'
  1218     07FA  3467               	retlw	103	;'g'
  1219     07FB  3473               	retlw	115	;'s'
  1220     07FC  3420               	retlw	32	;' '
  1221     07FD  3420               	retlw	32	;' '
  1222     07FE  3420               	retlw	32	;' '
  1223     07FF  3420               	retlw	32	;' '
  1224     0800  3420               	retlw	32	;' '
  1225     0801  3420               	retlw	32	;' '
  1226     0802  3400               	retlw	0
  1227     0803                     STR_13:
  1228     0803  3420               	retlw	32	;' '
  1229     0804  3420               	retlw	32	;' '
  1230     0805  3420               	retlw	32	;' '
  1231     0806  3420               	retlw	32	;' '
  1232     0807  3420               	retlw	32	;' '
  1233     0808  3443               	retlw	67	;'C'
  1234     0809  3475               	retlw	117	;'u'
  1235     080A  3474               	retlw	116	;'t'
  1236     080B  3465               	retlw	101	;'e'
  1237     080C  3463               	retlw	99	;'c'
  1238     080D  346F               	retlw	111	;'o'
  1239     080E  346D               	retlw	109	;'m'
  1240     080F  3420               	retlw	32	;' '
  1241     0810  3420               	retlw	32	;' '
  1242     0811  3420               	retlw	32	;' '
  1243     0812  3420               	retlw	32	;' '
  1244     0813  3400               	retlw	0
  1245     0814                     STR_9:
  1246     0814  3420               	retlw	32	;' '
  1247     0815  3445               	retlw	69	;'E'
  1248     0816  346E               	retlw	110	;'n'
  1249     0817  3474               	retlw	116	;'t'
  1250     0818  3465               	retlw	101	;'e'
  1251     0819  3472               	retlw	114	;'r'
  1252     081A  3420               	retlw	32	;' '
  1253     081B  3450               	retlw	80	;'P'
  1254     081C  3461               	retlw	97	;'a'
  1255     081D  3473               	retlw	115	;'s'
  1256     081E  3473               	retlw	115	;'s'
  1257     081F  3477               	retlw	119	;'w'
  1258     0820  346F               	retlw	111	;'o'
  1259     0821  3472               	retlw	114	;'r'
  1260     0822  3464               	retlw	100	;'d'
  1261     0823  3420               	retlw	32	;' '
  1262     0824  3400               	retlw	0
  1263     0825                     STR_49:
  1264     0825  3454               	retlw	84	;'T'
  1265     0826  3469               	retlw	105	;'i'
  1266     0827  346D               	retlw	109	;'m'
  1267     0828  3465               	retlw	101	;'e'
  1268     0829  3420               	retlw	32	;' '
  1269     082A  3428               	retlw	40	;'('
  1270     082B  3448               	retlw	72	;'H'
  1271     082C  3448               	retlw	72	;'H'
  1272     082D  343A               	retlw	58	;':'
  1273     082E  344D               	retlw	77	;'M'
  1274     082F  344D               	retlw	77	;'M'
  1275     0830  343A               	retlw	58	;':'
  1276     0831  3453               	retlw	83	;'S'
  1277     0832  3453               	retlw	83	;'S'
  1278     0833  3429               	retlw	41	;')'
  1279     0834  3400               	retlw	0
  1280     0835                     STR_20:
  1281     0835  3443               	retlw	67	;'C'
  1282     0836  3468               	retlw	104	;'h'
  1283     0837  3461               	retlw	97	;'a'
  1284     0838  346E               	retlw	110	;'n'
  1285     0839  3467               	retlw	103	;'g'
  1286     083A  3465               	retlw	101	;'e'
  1287     083B  3420               	retlw	32	;' '
  1288     083C  3470               	retlw	112	;'p'
  1289     083D  3461               	retlw	97	;'a'
  1290     083E  3473               	retlw	115	;'s'
  1291     083F  3473               	retlw	115	;'s'
  1292     0840  3477               	retlw	119	;'w'
  1293     0841  346F               	retlw	111	;'o'
  1294     0842  3472               	retlw	114	;'r'
  1295     0843  3464               	retlw	100	;'d'
  1296     0844  3400               	retlw	0
  1297     0845                     STR_26:
  1298     0845  3420               	retlw	32	;' '
  1299     0846  3441               	retlw	65	;'A'
  1300     0847  3474               	retlw	116	;'t'
  1301     0848  3474               	retlw	116	;'t'
  1302     0849  3465               	retlw	101	;'e'
  1303     084A  346D               	retlw	109	;'m'
  1304     084B  3470               	retlw	112	;'p'
  1305     084C  3474               	retlw	116	;'t'
  1306     084D  3420               	retlw	32	;' '
  1307     084E  3452               	retlw	82	;'R'
  1308     084F  3465               	retlw	101	;'e'
  1309     0850  346D               	retlw	109	;'m'
  1310     0851  3461               	retlw	97	;'a'
  1311     0852  3469               	retlw	105	;'i'
  1312     0853  346E               	retlw	110	;'n'
  1313     0854  3400               	retlw	0
  1314     0855                     STR_46:
  1315     0855  3473               	retlw	115	;'s'
  1316     0856  3475               	retlw	117	;'u'
  1317     0857  3463               	retlw	99	;'c'
  1318     0858  3463               	retlw	99	;'c'
  1319     0859  3465               	retlw	101	;'e'
  1320     085A  3473               	retlw	115	;'s'
  1321     085B  3473               	retlw	115	;'s'
  1322     085C  3466               	retlw	102	;'f'
  1323     085D  3475               	retlw	117	;'u'
  1324     085E  346C               	retlw	108	;'l'
  1325     085F  346C               	retlw	108	;'l'
  1326     0860  3479               	retlw	121	;'y'
  1327     0861  3420               	retlw	32	;' '
  1328     0862  3400               	retlw	0
  1329     0863                     STR_50:
  1330     0863  3454               	retlw	84	;'T'
  1331     0864  3469               	retlw	105	;'i'
  1332     0865  346D               	retlw	109	;'m'
  1333     0866  3465               	retlw	101	;'e'
  1334     0867  3420               	retlw	32	;' '
  1335     0868  3463               	retlw	99	;'c'
  1336     0869  3468               	retlw	104	;'h'
  1337     086A  3461               	retlw	97	;'a'
  1338     086B  346E               	retlw	110	;'n'
  1339     086C  3467               	retlw	103	;'g'
  1340     086D  3465               	retlw	101	;'e'
  1341     086E  3464               	retlw	100	;'d'
  1342     086F  3400               	retlw	0
  1343     0870                     STR_32:
  1344     0870  344C               	retlw	76	;'L'
  1345     0871  346F               	retlw	111	;'o'
  1346     0872  3467               	retlw	103	;'g'
  1347     0873  3473               	retlw	115	;'s'
  1348     0874  3420               	retlw	32	;' '
  1349     0875  3463               	retlw	99	;'c'
  1350     0876  346C               	retlw	108	;'l'
  1351     0877  3465               	retlw	101	;'e'
  1352     0878  3461               	retlw	97	;'a'
  1353     0879  3472               	retlw	114	;'r'
  1354     087A  3465               	retlw	101	;'e'
  1355     087B  3464               	retlw	100	;'d'
  1356     087C  3400               	retlw	0
  1357     087D                     STR_19:
  1358     087D  3444               	retlw	68	;'D'
  1359     087E  346F               	retlw	111	;'o'
  1360     087F  3477               	retlw	119	;'w'
  1361     0880  346E               	retlw	110	;'n'
  1362     0881  346C               	retlw	108	;'l'
  1363     0882  346F               	retlw	111	;'o'
  1364     0883  3461               	retlw	97	;'a'
  1365     0884  3464               	retlw	100	;'d'
  1366     0885  3420               	retlw	32	;' '
  1367     0886  346C               	retlw	108	;'l'
  1368     0887  346F               	retlw	111	;'o'
  1369     0888  3467               	retlw	103	;'g'
  1370     0889  3400               	retlw	0
  1371     088A                     STR_51:
  1372     088A  3453               	retlw	83	;'S'
  1373     088B  3475               	retlw	117	;'u'
  1374     088C  3463               	retlw	99	;'c'
  1375     088D  3463               	retlw	99	;'c'
  1376     088E  3465               	retlw	101	;'e'
  1377     088F  3473               	retlw	115	;'s'
  1378     0890  3473               	retlw	115	;'s'
  1379     0891  3466               	retlw	102	;'f'
  1380     0892  3475               	retlw	117	;'u'
  1381     0893  346C               	retlw	108	;'l'
  1382     0894  346C               	retlw	108	;'l'
  1383     0895  3479               	retlw	121	;'y'
  1384     0896  3400               	retlw	0
  1385     0897                     STR_33:
  1386     0897  3473               	retlw	115	;'s'
  1387     0898  3475               	retlw	117	;'u'
  1388     0899  3463               	retlw	99	;'c'
  1389     089A  3463               	retlw	99	;'c'
  1390     089B  3465               	retlw	101	;'e'
  1391     089C  3473               	retlw	115	;'s'
  1392     089D  3473               	retlw	115	;'s'
  1393     089E  3466               	retlw	102	;'f'
  1394     089F  3475               	retlw	117	;'u'
  1395     08A0  346C               	retlw	108	;'l'
  1396     08A1  346C               	retlw	108	;'l'
  1397     08A2  3479               	retlw	121	;'y'
  1398     08A3  3400               	retlw	0
  1399     08A4                     STR_18:
  1400     08A4  3443               	retlw	67	;'C'
  1401     08A5  346C               	retlw	108	;'l'
  1402     08A6  3465               	retlw	101	;'e'
  1403     08A7  3461               	retlw	97	;'a'
  1404     08A8  3472               	retlw	114	;'r'
  1405     08A9  3420               	retlw	32	;' '
  1406     08AA  346C               	retlw	108	;'l'
  1407     08AB  346F               	retlw	111	;'o'
  1408     08AC  3467               	retlw	103	;'g'
  1409     08AD  3400               	retlw	0
  1410     08AE                     STR_21:
  1411     08AE  3453               	retlw	83	;'S'
  1412     08AF  3465               	retlw	101	;'e'
  1413     08B0  3474               	retlw	116	;'t'
  1414     08B1  3420               	retlw	32	;' '
  1415     08B2  3474               	retlw	116	;'t'
  1416     08B3  3469               	retlw	105	;'i'
  1417     08B4  346D               	retlw	109	;'m'
  1418     08B5  3465               	retlw	101	;'e'
  1419     08B6  3400               	retlw	0
  1420     08B7                     STR_17:
  1421     08B7  3456               	retlw	86	;'V'
  1422     08B8  3469               	retlw	105	;'i'
  1423     08B9  3465               	retlw	101	;'e'
  1424     08BA  3477               	retlw	119	;'w'
  1425     08BB  3420               	retlw	32	;' '
  1426     08BC  346C               	retlw	108	;'l'
  1427     08BD  346F               	retlw	111	;'o'
  1428     08BE  3467               	retlw	103	;'g'
  1429     08BF  3400               	retlw	0
  1430     08C0                     STR_35:
  1431     08C0  344C               	retlw	76	;'L'
  1432     08C1  346F               	retlw	111	;'o'
  1433     08C2  3467               	retlw	103	;'g'
  1434     08C3  3473               	retlw	115	;'s'
  1435     08C4  3420               	retlw	32	;' '
  1436     08C5  343A               	retlw	58	;':'
  1437     08C6  3400               	retlw	0
  1438     08C7                     STR_48:
  1439     08C7  3466               	retlw	102	;'f'
  1440     08C8  3461               	retlw	97	;'a'
  1441     08C9  3469               	retlw	105	;'i'
  1442     08CA  346C               	retlw	108	;'l'
  1443     08CB  3465               	retlw	101	;'e'
  1444     08CC  3464               	retlw	100	;'d'
  1445     08CD  3400               	retlw	0
  1446     08CE                     STR_7:
  1447     08CE  3431               	retlw	49	;'1'
  1448     08CF  3430               	retlw	48	;'0'
  1449     08D0  3431               	retlw	49	;'1'
  1450     08D1  3430               	retlw	48	;'0'
  1451     08D2  3400               	retlw	0
  1452     08D3                     STR_3:
  1453     08D3  3447               	retlw	71	;'G'
  1454     08D4  3431               	retlw	49	;'1'
  1455     08D5  3400               	retlw	0
  1456     08D6                     STR_4:
  1457     08D6  3447               	retlw	71	;'G'
  1458     08D7  3432               	retlw	50	;'2'
  1459     08D8  3400               	retlw	0
  1460     08D9                     STR_5:
  1461     08D9  3447               	retlw	71	;'G'
  1462     08DA  3433               	retlw	51	;'3'
  1463     08DB  3400               	retlw	0
  1464     08DC                     STR_6:
  1465     08DC  3447               	retlw	71	;'G'
  1466     08DD  3434               	retlw	52	;'4'
  1467     08DE  3400               	retlw	0
  1468     08DF                     STR_15:
  1469     08DF  3443               	retlw	67	;'C'
  1470     08E0  344C               	retlw	76	;'L'
  1471     08E1  3400               	retlw	0
  1472     08E2                     STR_11:
  1473     08E2  3444               	retlw	68	;'D'
  1474     08E3  344C               	retlw	76	;'L'
  1475     08E4  3400               	retlw	0
  1476     08E5                     STR_1:
  1477     08E5  3447               	retlw	71	;'G'
  1478     08E6  344E               	retlw	78	;'N'
  1479     08E7  3400               	retlw	0
  1480     08E8                     STR_8:
  1481     08E8  3443               	retlw	67	;'C'
  1482     08E9  344F               	retlw	79	;'O'
  1483     08EA  3400               	retlw	0
  1484     08EB                     STR_16:
  1485     08EB  3443               	retlw	67	;'C'
  1486     08EC  3450               	retlw	80	;'P'
  1487     08ED  3400               	retlw	0
  1488     08EE                     STR_2:
  1489     08EE  3447               	retlw	71	;'G'
  1490     08EF  3452               	retlw	82	;'R'
  1491     08F0  3400               	retlw	0
  1492     08F1                     STR_14:
  1493     08F1  3453               	retlw	83	;'S'
  1494     08F2  3454               	retlw	84	;'T'
  1495     08F3  3400               	retlw	0
  1496     0733                     
  1497                           	psect	cinit
  1498     000F                     start_initialization:	
  1499                           ; #config settings
  1500                           
  1501     000F                     __initialization:
  1502                           
  1503                           ; Initialize objects allocated to BANK1
  1504     000F  1383               	bcf	3,7	;select IRP bank0
  1505     0010  30B9               	movlw	low (__pdataBANK1+25)
  1506     0011  00FD               	movwf	btemp+-1
  1507     0012  3008               	movlw	high __pidataBANK1
  1508     0013  00FE               	movwf	btemp
  1509     0014  30F4               	movlw	low __pidataBANK1
  1510     0015  00FF               	movwf	btemp+1
  1511     0016  30A0               	movlw	low __pdataBANK1
  1512     0017  0084               	movwf	4
  1513     0018  160A  118A  21C7  120A  118A  	fcall	init_ram0
  1514                           
  1515                           ; Initialize objects allocated to BANK0
  1516     001D  306C               	movlw	low (__pdataBANK0+6)
  1517     001E  00FD               	movwf	btemp+-1
  1518     001F  3011               	movlw	high __pidataBANK0
  1519     0020  00FE               	movwf	btemp
  1520     0021  3020               	movlw	low __pidataBANK0
  1521     0022  00FF               	movwf	btemp+1
  1522     0023  3066               	movlw	low __pdataBANK0
  1523     0024  0084               	movwf	4
  1524     0025  160A  118A  21C7  120A  118A  	fcall	init_ram0
  1525                           
  1526                           ; Clear objects allocated to BANK1
  1527     002A  30B9               	movlw	low __pbssBANK1
  1528     002B  0084               	movwf	4
  1529     002C  30D1               	movlw	low (__pbssBANK1+24)
  1530     002D  160A  118A  212D  120A  118A  	fcall	clear_ram0
  1531                           
  1532                           ; Clear objects allocated to BANK0
  1533     0032  3020               	movlw	low __pbssBANK0
  1534     0033  0084               	movwf	4
  1535     0034  3045               	movlw	low (__pbssBANK0+37)
  1536     0035  160A  118A  212D  120A  118A  	fcall	clear_ram0
  1537                           
  1538                           ; Clear objects allocated to COMMON
  1539     003A  01FA               	clrf	__pbssCOMMON& (0+127)
  1540     003B  01FB               	clrf	(__pbssCOMMON+1)& (0+127)
  1541     003C                     end_of_initialization:	
  1542                           ;End of C runtime variable initialization code
  1543                           
  1544     003C                     __end_of__initialization:
  1545     003C  0183               	clrf	3
  1546     003D  120A  118A  2840   	ljmp	_main	;jump to C main() function
  1547                           
  1548                           	psect	bssCOMMON
  1549     007A                     __pbssCOMMON:
  1550     007A                     read_digital_keypad@pre_key:
  1551     007A                     	ds	1
  1552     007B                     read_digital_keypad@once:
  1553     007B                     	ds	1
  1554                           
  1555                           	psect	bssBANK0
  1556     0020                     __pbssBANK0:
  1557     0020                     change_time@new_time:
  1558     0020                     	ds	6
  1559     0026                     _clock_reg:
  1560     0026                     	ds	3
  1561     0029                     isr@count:
  1562     0029                     	ds	2
  1563     002B                     change_time@blink_pos:
  1564     002B                     	ds	2
  1565     002D                     change_password@blink_delay:
  1566     002D                     	ds	2
  1567     002F                     change_password@pwd_pos:
  1568     002F                     	ds	2
  1569     0031                     view_log@index:
  1570     0031                     	ds	2
  1571     0033                     _sec:
  1572     0033                     	ds	2
  1573     0035                     read_digital_keypad@long_pressed:
  1574     0035                     	ds	2
  1575     0037                     change_time@t_done:
  1576     0037                     	ds	1
  1577     0038                     change_time@blink:
  1578     0038                     	ds	1
  1579     0039                     change_time@wait:
  1580     0039                     	ds	1
  1581     003A                     change_password@toggle_cursor:
  1582     003A                     	ds	1
  1583     003B                     change_password@pwd_changed:
  1584     003B                     	ds	1
  1585     003C                     login_menu@menu_pos:
  1586     003C                     	ds	1
  1587     003D                     login@i:
  1588     003D                     	ds	1
  1589     003E                     _time:
  1590     003E                     	ds	7
  1591                           
  1592                           	psect	dataBANK0
  1593     0066                     __pdataBANK0:
  1594     0066                     _event_count:
  1595     0066                     	ds	2
  1596     0068                     _pos:
  1597     0068                     	ds	2
  1598     006A                     login@attempts_rem:
  1599     006A                     	ds	1
  1600     006B                     _return_time:
  1601     006B                     	ds	1
  1602                           
  1603                           	psect	bssBANK1
  1604     00B9                     __pbssBANK1:
  1605     00B9                     _log:
  1606     00B9                     	ds	11
  1607     00C4                     change_password@new_pwd:
  1608     00C4                     	ds	9
  1609     00CD                     login@npassword:
  1610     00CD                     	ds	4
  1611                           
  1612                           	psect	dataBANK1
  1613     00A0                     __pdataBANK1:
  1614     00A0                     _gear:
  1615     00A0                     	ds	12
  1616     00AC                     _menu:
  1617     00AC                     	ds	10
  1618     00B6                     main@F1249:
  1619     00B6                     	ds	3
  1620                           
  1621                           	psect	inittext
  1622     11C3                     init_fetch0:	
  1623                           ;	Called with low address in FSR and high address in W
  1624                           
  1625     11C3  087E               	movf	btemp,w
  1626     11C4  008A               	movwf	10
  1627     11C5  087F               	movf	btemp+1,w
  1628     11C6  0082               	movwf	2
  1629     11C7                     init_ram0:	
  1630                           ;Called with:
  1631                           ;	high address of idata address in btemp 
  1632                           ;	low address of idata address in btemp+1 
  1633                           ;	low address of data in FSR
  1634                           ;	high address + 1 of data in btemp-1
  1635                           
  1636     11C7  160A  118A  21C3  160A  118A  	fcall	init_fetch0
  1637     11CC  0080               	movwf	0
  1638     11CD  0A84               	incf	4,f
  1639     11CE  0804               	movf	4,w
  1640     11CF  067D               	xorwf	btemp+-1,w
  1641     11D0  1903               	btfsc	3,2
  1642     11D1  3400               	retlw	0
  1643     11D2  0AFF               	incf	btemp+1,f
  1644     11D3  1903               	btfsc	3,2
  1645     11D4  0AFE               	incf	btemp,f
  1646     11D5  29C7               	goto	init_ram0
  1647                           
  1648                           	psect	clrtext
  1649     112D                     clear_ram0:	
  1650                           ;	Called with FSR containing the base address, and
  1651                           ;	W with the last address+1
  1652                           
  1653     112D  0064               	clrwdt	;clear the watchdog before getting into this loop
  1654     112E                     clrloop0:
  1655     112E  0180               	clrf	0	;clear RAM location pointed to by FSR
  1656     112F  0A84               	incf	4,f	;increment pointer
  1657     1130  0604               	xorwf	4,w	;XOR with final address
  1658     1131  1903               	btfsc	3,2	;have we reached the end yet?
  1659     1132  3400               	retlw	0	;all done for this memory range, return
  1660     1133  0604               	xorwf	4,w	;XOR again to restore value
  1661     1134  292E               	goto	clrloop0	;do the next byte
  1662                           
  1663                           	psect	cstackBANK1
  1664     00D1                     __pcstackBANK1:
  1665     00D1                     main@menu_pos:
  1666                           
  1667                           ; 1 bytes @ 0x0
  1668     00D1                     	ds	1
  1669     00D2                     main@event:
  1670                           
  1671                           ; 3 bytes @ 0x1
  1672     00D2                     	ds	3
  1673     00D5                     main@gr:
  1674                           
  1675                           ; 1 bytes @ 0x4
  1676     00D5                     	ds	1
  1677     00D6                     main@reset_flag:
  1678                           
  1679                           ; 1 bytes @ 0x5
  1680     00D6                     	ds	1
  1681     00D7                     main@speed:
  1682                           
  1683                           ; 1 bytes @ 0x6
  1684     00D7                     	ds	1
  1685     00D8                     main@control_flag:
  1686                           
  1687                           ; 1 bytes @ 0x7
  1688     00D8                     	ds	1
  1689     00D9                     main@key:
  1690                           
  1691                           ; 1 bytes @ 0x8
  1692     00D9                     	ds	1
  1693                           
  1694                           	psect	cstackCOMMON
  1695     0070                     __pcstackCOMMON:
  1696     0070                     ?_init_clcd:
  1697     0070                     ?_init_adc:	
  1698                           ; 1 bytes @ 0x0
  1699                           
  1700     0070                     ?_init_ds1307:	
  1701                           ; 1 bytes @ 0x0
  1702                           
  1703     0070                     ?_init_digital_keypad:	
  1704                           ; 1 bytes @ 0x0
  1705                           
  1706     0070                     ?_init_timer2:	
  1707                           ; 1 bytes @ 0x0
  1708                           
  1709     0070                     ?_read_digital_keypad:	
  1710                           ; 1 bytes @ 0x0
  1711                           
  1712     0070                     ?_clear_screen:	
  1713                           ; 1 bytes @ 0x0
  1714                           
  1715     0070                     ?_download_log:	
  1716                           ; 1 bytes @ 0x0
  1717                           
  1718     0070                     ?_clear_log:	
  1719                           ; 1 bytes @ 0x0
  1720                           
  1721     0070                     ?_read_ds1307:	
  1722                           ; 1 bytes @ 0x0
  1723                           
  1724     0070                     ?_i2c_start:	
  1725                           ; 1 bytes @ 0x0
  1726                           
  1727     0070                     ?_i2c_rep_start:	
  1728                           ; 1 bytes @ 0x0
  1729                           
  1730     0070                     ?_i2c_read:	
  1731                           ; 1 bytes @ 0x0
  1732                           
  1733     0070                     ?_i2c_stop:	
  1734                           ; 1 bytes @ 0x0
  1735                           
  1736     0070                     ?_putchar:	
  1737                           ; 1 bytes @ 0x0
  1738                           
  1739     0070                     ?_init_config:	
  1740                           ; 1 bytes @ 0x0
  1741                           
  1742     0070                     ?_main:	
  1743                           ; 1 bytes @ 0x0
  1744                           
  1745     0070                     ?_init_display_controller:	
  1746                           ; 1 bytes @ 0x0
  1747                           
  1748     0070                     ?_i2c_wait_for_idle:	
  1749                           ; 1 bytes @ 0x0
  1750                           
  1751     0070                     ?_eeprom_at24c04_random_read:	
  1752                           ; 1 bytes @ 0x0
  1753                           
  1754     0070                     ?_get_time:	
  1755                           ; 1 bytes @ 0x0
  1756                           
  1757     0070                     ?_display_time:	
  1758                           ; 1 bytes @ 0x0
  1759                           
  1760     0070                     ?_log_event:	
  1761                           ; 1 bytes @ 0x0
  1762                           
  1763     0070                     ?_isr:	
  1764                           ; 1 bytes @ 0x0
  1765                           
  1766     0070                     ??_isr:	
  1767                           ; 1 bytes @ 0x0
  1768                           
  1769     0070                     ?_i2c_write:	
  1770                           ; 1 bytes @ 0x0
  1771                           
  1772                           
  1773                           ; 2 bytes @ 0x0
  1774     0070                     	ds	2
  1775     0072                     ??_init_adc:
  1776     0072                     ??_init_digital_keypad:	
  1777                           ; 1 bytes @ 0x2
  1778                           
  1779     0072                     ??_init_timer2:	
  1780                           ; 1 bytes @ 0x2
  1781                           
  1782     0072                     ??_read_digital_keypad:	
  1783                           ; 1 bytes @ 0x2
  1784                           
  1785     0072                     ?_strcpy:	
  1786                           ; 1 bytes @ 0x2
  1787                           
  1788     0072                     ?_clcd_write:	
  1789                           ; 1 bytes @ 0x2
  1790                           
  1791     0072                     ??_i2c_start:	
  1792                           ; 1 bytes @ 0x2
  1793                           
  1794     0072                     ??_i2c_write:	
  1795                           ; 1 bytes @ 0x2
  1796                           
  1797     0072                     ??_i2c_rep_start:	
  1798                           ; 1 bytes @ 0x2
  1799                           
  1800     0072                     ??_i2c_read:	
  1801                           ; 1 bytes @ 0x2
  1802                           
  1803     0072                     ??_i2c_stop:	
  1804                           ; 1 bytes @ 0x2
  1805                           
  1806     0072                     ?_strncpy:	
  1807                           ; 1 bytes @ 0x2
  1808                           
  1809     0072                     ??_putchar:	
  1810                           ; 1 bytes @ 0x2
  1811                           
  1812     0072                     ??_i2c_wait_for_idle:	
  1813                           ; 1 bytes @ 0x2
  1814                           
  1815     0072                     ?___bmul:	
  1816                           ; 1 bytes @ 0x2
  1817                           
  1818     0072                     ?_read_adc:	
  1819                           ; 1 bytes @ 0x2
  1820                           
  1821     0072                     ?_strncmp:	
  1822                           ; 2 bytes @ 0x2
  1823                           
  1824     0072                     ?___wmul:	
  1825                           ; 2 bytes @ 0x2
  1826                           
  1827     0072                     ?___awdiv:	
  1828                           ; 2 bytes @ 0x2
  1829                           
  1830     0072                     ?___awmod:	
  1831                           ; 2 bytes @ 0x2
  1832                           
  1833     0072                     ?___lldiv:	
  1834                           ; 2 bytes @ 0x2
  1835                           
  1836     0072                     clcd_write@mode:	
  1837                           ; 4 bytes @ 0x2
  1838                           
  1839     0072                     read_digital_keypad@key:	
  1840                           ; 1 bytes @ 0x2
  1841                           
  1842     0072                     i2c_read@ack:	
  1843                           ; 1 bytes @ 0x2
  1844                           
  1845     0072                     i2c_write@data:	
  1846                           ; 1 bytes @ 0x2
  1847                           
  1848     0072                     putchar@data:	
  1849                           ; 1 bytes @ 0x2
  1850                           
  1851     0072                     ___bmul@multiplicand:	
  1852                           ; 1 bytes @ 0x2
  1853                           
  1854     0072                     strncmp@r:	
  1855                           ; 1 bytes @ 0x2
  1856                           
  1857     0072                     ___wmul@multiplier:	
  1858                           ; 1 bytes @ 0x2
  1859                           
  1860     0072                     ___awdiv@divisor:	
  1861                           ; 2 bytes @ 0x2
  1862                           
  1863     0072                     ___awmod@divisor:	
  1864                           ; 2 bytes @ 0x2
  1865                           
  1866     0072                     strcpy@src:	
  1867                           ; 2 bytes @ 0x2
  1868                           
  1869     0072                     strncpy@s:	
  1870                           ; 2 bytes @ 0x2
  1871                           
  1872     0072                     ___lldiv@divisor:	
  1873                           ; 2 bytes @ 0x2
  1874                           
  1875                           
  1876                           ; 4 bytes @ 0x2
  1877     0072                     	ds	1
  1878     0073                     ??_clcd_write:
  1879     0073                     ?_write_ds1307:	
  1880                           ; 1 bytes @ 0x3
  1881                           
  1882     0073                     ?_puts:	
  1883                           ; 1 bytes @ 0x3
  1884                           
  1885     0073                     ?_eeprom_at24c04_byte_write:	
  1886                           ; 1 bytes @ 0x3
  1887                           
  1888     0073                     ??___bmul:	
  1889                           ; 1 bytes @ 0x3
  1890                           
  1891     0073                     write_ds1307@data:	
  1892                           ; 1 bytes @ 0x3
  1893                           
  1894     0073                     i2c_read@data:	
  1895                           ; 1 bytes @ 0x3
  1896                           
  1897     0073                     eeprom_at24c04_byte_write@data:	
  1898                           ; 1 bytes @ 0x3
  1899                           
  1900     0073                     ___bmul@product:	
  1901                           ; 1 bytes @ 0x3
  1902                           
  1903     0073                     puts@s:	
  1904                           ; 1 bytes @ 0x3
  1905                           
  1906     0073                     strncmp@n:	
  1907                           ; 2 bytes @ 0x3
  1908                           
  1909                           
  1910                           ; 2 bytes @ 0x3
  1911     0073                     	ds	1
  1912     0074                     ??_read_adc:
  1913     0074                     ??_strcpy:	
  1914                           ; 1 bytes @ 0x4
  1915                           
  1916     0074                     ??_read_ds1307:	
  1917                           ; 1 bytes @ 0x4
  1918                           
  1919     0074                     ??_write_ds1307:	
  1920                           ; 1 bytes @ 0x4
  1921                           
  1922     0074                     ??_eeprom_at24c04_random_read:	
  1923                           ; 1 bytes @ 0x4
  1924                           
  1925     0074                     ??_eeprom_at24c04_byte_write:	
  1926                           ; 1 bytes @ 0x4
  1927                           
  1928     0074                     read_ds1307@addr:	
  1929                           ; 1 bytes @ 0x4
  1930                           
  1931     0074                     write_ds1307@addr:	
  1932                           ; 1 bytes @ 0x4
  1933                           
  1934     0074                     eeprom_at24c04_random_read@memory_loc:	
  1935                           ; 1 bytes @ 0x4
  1936                           
  1937     0074                     ___bmul@multiplier:	
  1938                           ; 1 bytes @ 0x4
  1939                           
  1940     0074                     read_adc@adc_reg_val:	
  1941                           ; 1 bytes @ 0x4
  1942                           
  1943     0074                     ___wmul@multiplicand:	
  1944                           ; 2 bytes @ 0x4
  1945                           
  1946     0074                     ___awdiv@dividend:	
  1947                           ; 2 bytes @ 0x4
  1948                           
  1949     0074                     ___awmod@dividend:	
  1950                           ; 2 bytes @ 0x4
  1951                           
  1952     0074                     strncpy@n:	
  1953                           ; 2 bytes @ 0x4
  1954                           
  1955                           
  1956                           ; 2 bytes @ 0x4
  1957     0074                     	ds	1
  1958     0075                     ??_strncmp:
  1959     0075                     ??_puts:	
  1960                           ; 1 bytes @ 0x5
  1961                           
  1962     0075                     clcd_write@byte:	
  1963                           ; 1 bytes @ 0x5
  1964                           
  1965     0075                     read_ds1307@data:	
  1966                           ; 1 bytes @ 0x5
  1967                           
  1968     0075                     eeprom_at24c04_random_read@received_data:	
  1969                           ; 1 bytes @ 0x5
  1970                           
  1971                           
  1972                           ; 1 bytes @ 0x5
  1973     0075                     	ds	1
  1974     0076                     ??_init_ds1307:
  1975     0076                     ??_clear_screen:	
  1976                           ; 1 bytes @ 0x6
  1977                           
  1978     0076                     ?_clcd_print:	
  1979                           ; 1 bytes @ 0x6
  1980                           
  1981     0076                     ??_download_log:	
  1982                           ; 1 bytes @ 0x6
  1983                           
  1984     0076                     ??_strncpy:	
  1985                           ; 1 bytes @ 0x6
  1986                           
  1987     0076                     ??_init_display_controller:	
  1988                           ; 1 bytes @ 0x6
  1989                           
  1990     0076                     ??_get_time:	
  1991                           ; 1 bytes @ 0x6
  1992                           
  1993     0076                     ??___wmul:	
  1994                           ; 1 bytes @ 0x6
  1995                           
  1996     0076                     ??___awdiv:	
  1997                           ; 1 bytes @ 0x6
  1998                           
  1999     0076                     ??___awmod:	
  2000                           ; 1 bytes @ 0x6
  2001                           
  2002     0076                     ?___lwdiv:	
  2003                           ; 1 bytes @ 0x6
  2004                           
  2005     0076                     init_ds1307@dummy:	
  2006                           ; 2 bytes @ 0x6
  2007                           
  2008     0076                     eeprom_at24c04_byte_write@memory_loc:	
  2009                           ; 1 bytes @ 0x6
  2010                           
  2011     0076                     ___awdiv@counter:	
  2012                           ; 1 bytes @ 0x6
  2013                           
  2014     0076                     ___awmod@counter:	
  2015                           ; 1 bytes @ 0x6
  2016                           
  2017     0076                     strcpy@d:	
  2018                           ; 1 bytes @ 0x6
  2019                           
  2020     0076                     clcd_print@str:	
  2021                           ; 1 bytes @ 0x6
  2022                           
  2023     0076                     ___wmul@product:	
  2024                           ; 2 bytes @ 0x6
  2025                           
  2026     0076                     ___lwdiv@divisor:	
  2027                           ; 2 bytes @ 0x6
  2028                           
  2029     0076                     ___lldiv@dividend:	
  2030                           ; 2 bytes @ 0x6
  2031                           
  2032                           
  2033                           ; 4 bytes @ 0x6
  2034     0076                     	ds	1
  2035     0077                     ?_eeprom_at24c04_str_write:
  2036     0077                     ___awdiv@sign:	
  2037                           ; 1 bytes @ 0x7
  2038                           
  2039     0077                     ___awmod@sign:	
  2040                           ; 1 bytes @ 0x7
  2041                           
  2042     0077                     strcpy@dest:	
  2043                           ; 1 bytes @ 0x7
  2044                           
  2045     0077                     strncmp@l:	
  2046                           ; 1 bytes @ 0x7
  2047                           
  2048     0077                     eeprom_at24c04_str_write@data:	
  2049                           ; 1 bytes @ 0x7
  2050                           
  2051                           
  2052                           ; 2 bytes @ 0x7
  2053     0077                     	ds	1
  2054     0078                     ??_init_clcd:
  2055     0078                     clcd_print@addr:	
  2056                           ; 1 bytes @ 0x8
  2057                           
  2058     0078                     strncpy@d:	
  2059                           ; 1 bytes @ 0x8
  2060                           
  2061     0078                     ___awdiv@quotient:	
  2062                           ; 1 bytes @ 0x8
  2063                           
  2064     0078                     ___lwdiv@dividend:	
  2065                           ; 2 bytes @ 0x8
  2066                           
  2067                           
  2068                           ; 2 bytes @ 0x8
  2069     0078                     	ds	1
  2070     0079                     ??_eeprom_at24c04_str_write:
  2071     0079                     ??_clcd_print:	
  2072                           ; 1 bytes @ 0x9
  2073                           
  2074     0079                     ??_clear_log:	
  2075                           ; 1 bytes @ 0x9
  2076                           
  2077     0079                     eeprom_at24c04_str_write@memory_loc:	
  2078                           ; 1 bytes @ 0x9
  2079                           
  2080     0079                     clear_log@reset_memory:	
  2081                           ; 1 bytes @ 0x9
  2082                           
  2083     0079                     strncpy@cp:	
  2084                           ; 1 bytes @ 0x9
  2085                           
  2086                           
  2087                           ; 1 bytes @ 0x9
  2088     0079                     	ds	1
  2089     007A                     ??_init_config:
  2090     007A                     ??_clcd_putch:	
  2091                           ; 1 bytes @ 0xA
  2092                           
  2093     007A                     ??_display_time:	
  2094                           ; 1 bytes @ 0xA
  2095                           
  2096     007A                     ??_log_event:	
  2097                           ; 1 bytes @ 0xA
  2098                           
  2099     007A                     ??___lwdiv:	
  2100                           ; 1 bytes @ 0xA
  2101                           
  2102     007A                     ??___lwmod:	
  2103                           ; 1 bytes @ 0xA
  2104                           
  2105                           
  2106                           	psect	cstackBANK0
  2107     0045                     __pcstackBANK0:	
  2108                           ; 1 bytes @ 0xA
  2109                           
  2110     0045                     ??___lldiv:
  2111     0045                     log_event@addr:	
  2112                           ; 1 bytes @ 0x0
  2113                           
  2114     0045                     ___lwdiv@counter:	
  2115                           ; 1 bytes @ 0x0
  2116                           
  2117     0045                     download_log@log:	
  2118                           ; 1 bytes @ 0x0
  2119                           
  2120                           
  2121                           ; 11 bytes @ 0x0
  2122     0045                     	ds	1
  2123     0046                     ?_log_car_event:
  2124     0046                     log_car_event@event:	
  2125                           ; 1 bytes @ 0x1
  2126                           
  2127     0046                     ___lwdiv@quotient:	
  2128                           ; 2 bytes @ 0x1
  2129                           
  2130     0046                     ___lldiv@quotient:	
  2131                           ; 2 bytes @ 0x1
  2132                           
  2133                           
  2134                           ; 4 bytes @ 0x1
  2135     0046                     	ds	2
  2136     0048                     ?___lwmod:
  2137     0048                     log_car_event@speed:	
  2138                           ; 2 bytes @ 0x3
  2139                           
  2140     0048                     ___lwmod@divisor:	
  2141                           ; 1 bytes @ 0x3
  2142                           
  2143                           
  2144                           ; 2 bytes @ 0x3
  2145     0048                     	ds	1
  2146     0049                     ??_log_car_event:
  2147                           
  2148                           ; 1 bytes @ 0x4
  2149     0049                     	ds	1
  2150     004A                     ___lldiv@counter:
  2151     004A                     ___lwmod@dividend:	
  2152                           ; 1 bytes @ 0x5
  2153                           
  2154                           
  2155                           ; 2 bytes @ 0x5
  2156     004A                     	ds	1
  2157     004B                     ?_init_i2c:
  2158     004B                     ?_init_uart:	
  2159                           ; 1 bytes @ 0x6
  2160                           
  2161     004B                     init_i2c@baud:	
  2162                           ; 1 bytes @ 0x6
  2163                           
  2164     004B                     init_uart@baud:	
  2165                           ; 4 bytes @ 0x6
  2166                           
  2167                           
  2168                           ; 4 bytes @ 0x6
  2169     004B                     	ds	1
  2170     004C                     ___lwmod@counter:
  2171                           
  2172                           ; 1 bytes @ 0x7
  2173     004C                     	ds	1
  2174     004D                     ?_clcd_putch:
  2175     004D                     clcd_putch@addr:	
  2176                           ; 1 bytes @ 0x8
  2177                           
  2178                           
  2179                           ; 1 bytes @ 0x8
  2180     004D                     	ds	1
  2181     004E                     clcd_putch@data:
  2182                           
  2183                           ; 1 bytes @ 0x9
  2184     004E                     	ds	1
  2185     004F                     ??_init_i2c:
  2186     004F                     ??_init_uart:	
  2187                           ; 1 bytes @ 0xA
  2188                           
  2189     004F                     ?_display_dashboard:	
  2190                           ; 1 bytes @ 0xA
  2191                           
  2192     004F                     ?_login:	
  2193                           ; 1 bytes @ 0xA
  2194                           
  2195     004F                     ?_login_menu:	
  2196                           ; 1 bytes @ 0xA
  2197                           
  2198     004F                     ?_view_log:	
  2199                           ; 1 bytes @ 0xA
  2200                           
  2201     004F                     ?_change_password:	
  2202                           ; 1 bytes @ 0xA
  2203                           
  2204     004F                     ?_change_time:	
  2205                           ; 1 bytes @ 0xA
  2206                           
  2207     004F                     display_dashboard@speed:	
  2208                           ; 1 bytes @ 0xA
  2209                           
  2210     004F                     login@reset_flag:	
  2211                           ; 1 bytes @ 0xA
  2212                           
  2213     004F                     login_menu@reset_flag:	
  2214                           ; 1 bytes @ 0xA
  2215                           
  2216     004F                     view_log@reset_index:	
  2217                           ; 1 bytes @ 0xA
  2218                           
  2219     004F                     change_password@reset_pwd:	
  2220                           ; 1 bytes @ 0xA
  2221                           
  2222     004F                     change_time@reset_time:	
  2223                           ; 1 bytes @ 0xA
  2224                           
  2225                           
  2226                           ; 1 bytes @ 0xA
  2227     004F                     	ds	1
  2228     0050                     ??_display_dashboard:
  2229     0050                     ??_login:	
  2230                           ; 1 bytes @ 0xB
  2231                           
  2232     0050                     ??_login_menu:	
  2233                           ; 1 bytes @ 0xB
  2234                           
  2235     0050                     ??_view_log:	
  2236                           ; 1 bytes @ 0xB
  2237                           
  2238     0050                     ??_change_password:	
  2239                           ; 1 bytes @ 0xB
  2240                           
  2241     0050                     ??_change_time:	
  2242                           ; 1 bytes @ 0xB
  2243                           
  2244     0050                     download_log@add:	
  2245                           ; 1 bytes @ 0xB
  2246                           
  2247                           
  2248                           ; 1 bytes @ 0xB
  2249     0050                     	ds	1
  2250     0051                     download_log@position:
  2251                           
  2252                           ; 2 bytes @ 0xC
  2253     0051                     	ds	1
  2254     0052                     display_dashboard@event:
  2255     0052                     login_menu@key:	
  2256                           ; 1 bytes @ 0xD
  2257                           
  2258     0052                     view_log@log:	
  2259                           ; 1 bytes @ 0xD
  2260                           
  2261                           
  2262                           ; 11 bytes @ 0xD
  2263     0052                     	ds	1
  2264     0053                     change_password@key:
  2265     0053                     change_time@key:	
  2266                           ; 1 bytes @ 0xE
  2267                           
  2268     0053                     download_log@index:	
  2269                           ; 1 bytes @ 0xE
  2270                           
  2271     0053                     _login$1111:	
  2272                           ; 2 bytes @ 0xE
  2273                           
  2274                           
  2275                           ; 2 bytes @ 0xE
  2276     0053                     	ds	1
  2277     0054                     change_time@buffer:
  2278                           
  2279                           ; 1 bytes @ 0xF
  2280     0054                     	ds	1
  2281     0055                     download_log@i:
  2282     0055                     login@spassword:	
  2283                           ; 2 bytes @ 0x10
  2284                           
  2285                           
  2286                           ; 4 bytes @ 0x10
  2287     0055                     	ds	4
  2288     0059                     login@key:
  2289                           
  2290                           ; 1 bytes @ 0x14
  2291     0059                     	ds	1
  2292     005A                     login@j:
  2293                           
  2294                           ; 2 bytes @ 0x15
  2295     005A                     	ds	3
  2296     005D                     view_log@position:
  2297                           
  2298                           ; 2 bytes @ 0x18
  2299     005D                     	ds	2
  2300     005F                     view_log@add:
  2301                           
  2302                           ; 1 bytes @ 0x1A
  2303     005F                     	ds	1
  2304     0060                     view_log@key:
  2305                           
  2306                           ; 1 bytes @ 0x1B
  2307     0060                     	ds	1
  2308     0061                     view_log@i:
  2309                           
  2310                           ; 2 bytes @ 0x1C
  2311     0061                     	ds	2
  2312     0063                     ??_main:
  2313                           
  2314                           ; 1 bytes @ 0x1E
  2315     0063                     	ds	3
  2316                           
  2317                           	psect	maintext
  2318     0040                     __pmaintext:	
  2319 ;;
  2320 ;;Main: autosize = 0, tempsize = 3, incstack = 0, save=0
  2321 ;;
  2322 ;; *************** function _main *****************
  2323 ;; Defined at:
  2324 ;;		line 47 in file "main.c"
  2325 ;; Parameters:    Size  Location     Type
  2326 ;;		None
  2327 ;; Auto vars:     Size  Location     Type
  2328 ;;  event           3    1[BANK1 ] unsigned char [3]
  2329 ;;  key             1    8[BANK1 ] unsigned char 
  2330 ;;  control_flag    1    7[BANK1 ] unsigned char 
  2331 ;;  speed           1    6[BANK1 ] unsigned char 
  2332 ;;  reset_flag      1    5[BANK1 ] unsigned char 
  2333 ;;  gr              1    4[BANK1 ] unsigned char 
  2334 ;;  menu_pos        1    0[BANK1 ] unsigned char 
  2335 ;; Return value:  Size  Location     Type
  2336 ;;                  1    wreg      void 
  2337 ;; Registers used:
  2338 ;;		wreg, fsr0l, fsr0h, status,2, status,0, btemp+1, pclath, cstack
  2339 ;; Tracked objects:
  2340 ;;		On entry : B00/0
  2341 ;;		On exit  : 0/0
  2342 ;;		Unchanged: 0/0
  2343 ;; Data sizes:     COMMON   BANK0   BANK1   BANK3   BANK2
  2344 ;;      Params:         0       0       0       0       0
  2345 ;;      Locals:         0       0       9       0       0
  2346 ;;      Temps:          0       3       0       0       0
  2347 ;;      Totals:         0       3       9       0       0
  2348 ;;Total ram usage:       12 bytes
  2349 ;; Hardware stack levels required when called: 8
  2350 ;; This function calls:
  2351 ;;		___lwdiv
  2352 ;;		_change_password
  2353 ;;		_change_time
  2354 ;;		_clcd_print
  2355 ;;		_clcd_write
  2356 ;;		_clear_log
  2357 ;;		_clear_screen
  2358 ;;		_display_dashboard
  2359 ;;		_download_log
  2360 ;;		_eeprom_at24c04_str_write
  2361 ;;		_init_config
  2362 ;;		_log_car_event
  2363 ;;		_login
  2364 ;;		_login_menu
  2365 ;;		_read_adc
  2366 ;;		_read_digital_keypad
  2367 ;;		_strcpy
  2368 ;;		_view_log
  2369 ;; This function is called by:
  2370 ;;		Startup code after reset
  2371 ;; This function uses a non-reentrant model
  2372 ;;
  2373                           
  2374     0040                     _main:	
  2375                           ;psect for function _main
  2376                           
  2377     0040                     l4870:	
  2378                           ;incstack = 0
  2379                           ; Regs used in _main: [wreg-fsr0h+status,2+status,0+btemp+1+pclath+cstack]
  2380                           
  2381                           
  2382                           ;main.c: 50:         {
  2383     0040  1683               	bsf	3,5	;RP0=1, select bank1
  2384     0041  1303               	bcf	3,6	;RP1=0, select bank1
  2385     0042  01D8               	clrf	main@control_flag^(0+128)
  2386     0043  0AD8               	incf	main@control_flag^(0+128),f
  2387     0044                     l4872:
  2388                           
  2389                           ;main.c: 51:             strcpy(event, "CO");
  2390     0044  0836               	movf	main@F1249^(0+128),w
  2391     0045  00D2               	movwf	main@event^(0+128)
  2392     0046  0837               	movf	(main@F1249+1)^(0+128),w
  2393     0047  00D3               	movwf	(main@event+1)^(0+128)
  2394     0048  0838               	movf	(main@F1249+2)^(0+128),w
  2395     0049  00D4               	movwf	(main@event+2)^(0+128)
  2396     004A                     l4874:
  2397     004A                     l4876:
  2398                           
  2399                           ;main.c: 53:         }
  2400     004A  01D5               	clrf	main@gr^(0+128)
  2401     004B                     l4878:
  2402                           
  2403                           ;main.c: 54: ;main.c: 55:         else if (key == 0x3D && gr < 6);main.c: 56:         {;
      +                          main.c: 58:             gr++;
  2404     004B  160A  118A  246B  120A  118A  	fcall	_init_config
  2405     0050                     l4880:
  2406                           
  2407                           ;main.c: 60:         }
  2408     0050  30CE               	movlw	low (STR_7| (0+32768))
  2409     0051  00F7               	movwf	eeprom_at24c04_str_write@data
  2410     0052  3088               	movlw	high (STR_7| (0+32768))
  2411     0053  00F8               	movwf	eeprom_at24c04_str_write@data+1
  2412     0054  3000               	movlw	0
  2413     0055  160A  118A  2375  120A  118A  	fcall	_eeprom_at24c04_str_write
  2414     005A                     l4882:
  2415                           
  2416                           ;main.c: 62:         else if (key == 0x3B && gr > 0)
  2417     005A  30D2               	movlw	(low (main@event| 0))& (0+255)
  2418     005B  1283               	bcf	3,5	;RP0=0, select bank0
  2419     005C  1303               	bcf	3,6	;RP1=0, select bank0
  2420     005D  00C6               	movwf	log_car_event@event
  2421     005E  3000               	movlw	0
  2422     005F  00C7               	movwf	log_car_event@event+1
  2423     0060  01C8               	clrf	log_car_event@speed
  2424     0061  160A  118A  274F  120A  118A  	fcall	_log_car_event
  2425     0066                     l4884:
  2426                           
  2427                           ;main.c: 65:             strcpy(event, gear[gr]);;main.c: 66:             log_car_event(
      +                          event, speed);
  2428     0066  300A               	movlw	10
  2429     0067  00F6               	movwf	___lwdiv@divisor
  2430     0068  3000               	movlw	0
  2431     0069  00F7               	movwf	___lwdiv@divisor+1
  2432     006A  160A  118A  219E  120A  118A  	fcall	_read_adc
  2433     006F  0873               	movf	?_read_adc+1,w
  2434     0070  00F9               	movwf	___lwdiv@dividend+1
  2435     0071  0872               	movf	?_read_adc,w
  2436     0072  00F8               	movwf	___lwdiv@dividend
  2437     0073  160A  118A  2520  120A  118A  	fcall	___lwdiv
  2438     0078  0876               	movf	?___lwdiv,w
  2439     0079  1683               	bsf	3,5	;RP0=1, select bank1
  2440     007A  1303               	bcf	3,6	;RP1=0, select bank1
  2441     007B  00D7               	movwf	main@speed^(0+128)
  2442                           
  2443                           ;main.c: 69:         else if ((key == 0x37 || key == 0x2F) && control_flag == 0x01)
  2444     007C  3064               	movlw	100
  2445     007D  0257               	subwf	main@speed^(0+128),w
  2446     007E  1C03               	skipc
  2447     007F  2881               	goto	u4721
  2448     0080  2882               	goto	u4720
  2449     0081                     u4721:
  2450     0081  2884               	goto	l4888
  2451     0082                     u4720:
  2452     0082                     l4886:
  2453                           
  2454                           ;main.c: 70:         {;main.c: 71:             clear_screen();
  2455     0082  3063               	movlw	99
  2456     0083  00D7               	movwf	main@speed^(0+128)
  2457     0084                     l4888:
  2458                           
  2459                           ;main.c: 75:             clcd_write(0xC6, 0);
  2460     0084  120A  158A  21DC  120A  118A  	fcall	_read_digital_keypad
  2461     0089  1683               	bsf	3,5	;RP0=1, select bank1
  2462     008A  1303               	bcf	3,6	;RP1=0, select bank1
  2463     008B  00D9               	movwf	main@key^(0+128)
  2464     008C                     l4890:
  2465                           
  2466                           ;main.c: 77:             _delay((unsigned long)((100)*(20000000/4000000.0)));
  2467     008C  303E               	movlw	62
  2468     008D  0659               	xorwf	main@key^(0+128),w
  2469     008E  1D03               	btfss	3,2
  2470     008F  2891               	goto	u4731
  2471     0090  2892               	goto	u4730
  2472     0091                     u4731:
  2473     0091  28AE               	goto	l4894
  2474     0092                     u4730:
  2475     0092                     l4892:
  2476                           
  2477                           ;main.c: 78: ;main.c: 79:             control_flag = 0x02;
  2478     0092  30E8               	movlw	low (STR_8| (0+32768))
  2479     0093  00F2               	movwf	strcpy@src
  2480     0094  3088               	movlw	high (STR_8| (0+32768))
  2481     0095  00F3               	movwf	strcpy@src+1
  2482     0096  30D2               	movlw	(low (main@event| 0))& (0+255)
  2483     0097  160A  118A  225F  120A  118A  	fcall	_strcpy
  2484                           
  2485                           ;main.c: 80: 
  2486     009C  30D2               	movlw	(low (main@event| 0))& (0+255)
  2487     009D  1283               	bcf	3,5	;RP0=0, select bank0
  2488     009E  1303               	bcf	3,6	;RP1=0, select bank0
  2489     009F  00C6               	movwf	log_car_event@event
  2490     00A0  3000               	movlw	0
  2491     00A1  00C7               	movwf	log_car_event@event+1
  2492     00A2  1683               	bsf	3,5	;RP0=1, select bank1
  2493     00A3  1303               	bcf	3,6	;RP1=0, select bank1
  2494     00A4  0857               	movf	main@speed^(0+128),w
  2495     00A5  1283               	bcf	3,5	;RP0=0, select bank0
  2496     00A6  1303               	bcf	3,6	;RP1=0, select bank0
  2497     00A7  00C8               	movwf	log_car_event@speed
  2498     00A8  160A  118A  274F  120A  118A  	fcall	_log_car_event
  2499                           
  2500                           ;main.c: 81:             reset_flag = 0x60;
  2501     00AD  2B5B               	goto	l5094
  2502     00AE                     l4894:
  2503     00AE  303D               	movlw	61
  2504     00AF  0659               	xorwf	main@key^(0+128),w
  2505     00B0  1D03               	btfss	3,2
  2506     00B1  28B3               	goto	u4741
  2507     00B2  28B4               	goto	u4740
  2508     00B3                     u4741:
  2509     00B3  28E6               	goto	l4904
  2510     00B4                     u4740:
  2511     00B4                     l4896:
  2512     00B4  3006               	movlw	6
  2513     00B5  0255               	subwf	main@gr^(0+128),w
  2514     00B6  1803               	skipnc
  2515     00B7  28B9               	goto	u4751
  2516     00B8  28BA               	goto	u4750
  2517     00B9                     u4751:
  2518     00B9  28E6               	goto	l4904
  2519     00BA                     u4750:
  2520     00BA                     l4898:
  2521                           
  2522                           ;main.c: 84:         };main.c: 85: 
  2523     00BA  0855               	movf	main@gr^(0+128),w
  2524     00BB  1283               	bcf	3,5	;RP0=0, select bank0
  2525     00BC  1303               	bcf	3,6	;RP1=0, select bank0
  2526     00BD  00E3               	movwf	??_main
  2527     00BE  0763               	addwf	??_main,w
  2528     00BF  3EA0               	addlw	(low (_gear| 0))& (0+255)
  2529     00C0  0084               	movwf	4
  2530     00C1  1383               	bcf	3,7	;select IRP bank1
  2531     00C2  0800               	movf	0,w
  2532     00C3  00F2               	movwf	strcpy@src
  2533     00C4  0A84               	incf	4,f
  2534     00C5  0800               	movf	0,w
  2535     00C6  0384               	decf	4,f
  2536     00C7  00F3               	movwf	strcpy@src+1
  2537     00C8  30D2               	movlw	(low (main@event| 0))& (0+255)
  2538     00C9  160A  118A  225F  120A  118A  	fcall	_strcpy
  2539     00CE                     l4900:
  2540                           
  2541                           ;main.c: 86:         else if (key == 0x80 && control_flag == 0x03)
  2542     00CE  3001               	movlw	1
  2543     00CF  00FF               	movwf	btemp+1
  2544     00D0  087F               	movf	btemp+1,w
  2545     00D1  1683               	bsf	3,5	;RP0=1, select bank1
  2546     00D2  1303               	bcf	3,6	;RP1=0, select bank1
  2547     00D3  07D5               	addwf	main@gr^(0+128),f
  2548     00D4                     l4902:
  2549                           
  2550                           ;main.c: 87:         {
  2551     00D4  30D2               	movlw	(low (main@event| 0))& (0+255)
  2552     00D5  1283               	bcf	3,5	;RP0=0, select bank0
  2553     00D6  1303               	bcf	3,6	;RP1=0, select bank0
  2554     00D7  00C6               	movwf	log_car_event@event
  2555     00D8  3000               	movlw	0
  2556     00D9  00C7               	movwf	log_car_event@event+1
  2557     00DA  1683               	bsf	3,5	;RP0=1, select bank1
  2558     00DB  1303               	bcf	3,6	;RP1=0, select bank1
  2559     00DC  0857               	movf	main@speed^(0+128),w
  2560     00DD  1283               	bcf	3,5	;RP0=0, select bank0
  2561     00DE  1303               	bcf	3,6	;RP1=0, select bank0
  2562     00DF  00C8               	movwf	log_car_event@speed
  2563     00E0  160A  118A  274F  120A  118A  	fcall	_log_car_event
  2564                           
  2565                           ;main.c: 88:             switch (menu_pos)
  2566     00E5  2B5B               	goto	l5094
  2567     00E6                     l4904:
  2568     00E6  303B               	movlw	59
  2569     00E7  0659               	xorwf	main@key^(0+128),w
  2570     00E8  1D03               	btfss	3,2
  2571     00E9  28EB               	goto	u4761
  2572     00EA  28EC               	goto	u4760
  2573     00EB                     u4761:
  2574     00EB  2908               	goto	l4914
  2575     00EC                     u4760:
  2576     00EC                     l4906:
  2577     00EC  0855               	movf	main@gr^(0+128),w
  2578     00ED  1903               	btfsc	3,2
  2579     00EE  28F0               	goto	u4771
  2580     00EF  28F1               	goto	u4770
  2581     00F0                     u4771:
  2582     00F0  2908               	goto	l4914
  2583     00F1                     u4770:
  2584     00F1                     l4908:
  2585                           
  2586                           ;main.c: 91: ;main.c: 92:                     clear_screen();
  2587     00F1  3001               	movlw	1
  2588     00F2  02D5               	subwf	main@gr^(0+128),f
  2589     00F3                     l4910:
  2590                           
  2591                           ;main.c: 93:                     clcd_print("      Logs      ", (0x80 + 0));
  2592     00F3  0855               	movf	main@gr^(0+128),w
  2593     00F4  1283               	bcf	3,5	;RP0=0, select bank0
  2594     00F5  1303               	bcf	3,6	;RP1=0, select bank0
  2595     00F6  00E3               	movwf	??_main
  2596     00F7  0763               	addwf	??_main,w
  2597     00F8  3EA0               	addlw	(low (_gear| 0))& (0+255)
  2598     00F9  0084               	movwf	4
  2599     00FA  1383               	bcf	3,7	;select IRP bank1
  2600     00FB  0800               	movf	0,w
  2601     00FC  00F2               	movwf	strcpy@src
  2602     00FD  0A84               	incf	4,f
  2603     00FE  0800               	movf	0,w
  2604     00FF  0384               	decf	4,f
  2605     0100  00F3               	movwf	strcpy@src+1
  2606     0101  30D2               	movlw	(low (main@event| 0))& (0+255)
  2607     0102  160A  118A  225F  120A  118A  	fcall	_strcpy
  2608     0107  28D4               	goto	l4902
  2609     0108                     l4914:
  2610     0108  3037               	movlw	55
  2611     0109  0659               	xorwf	main@key^(0+128),w
  2612     010A  1903               	btfsc	3,2
  2613     010B  290D               	goto	u4781
  2614     010C  290E               	goto	u4780
  2615     010D                     u4781:
  2616     010D  2914               	goto	l4918
  2617     010E                     u4780:
  2618     010E                     l4916:
  2619     010E  302F               	movlw	47
  2620     010F  0659               	xorwf	main@key^(0+128),w
  2621     0110  1D03               	btfss	3,2
  2622     0111  2913               	goto	u4791
  2623     0112  2914               	goto	u4790
  2624     0113                     u4791:
  2625     0113  2948               	goto	l4936
  2626     0114                     u4790:
  2627     0114                     l4918:
  2628     0114  0358               	decf	main@control_flag^(0+128),w
  2629     0115  1D03               	btfss	3,2
  2630     0116  2918               	goto	u4801
  2631     0117  2919               	goto	u4800
  2632     0118                     u4801:
  2633     0118  2948               	goto	l4936
  2634     0119                     u4800:
  2635     0119                     l4920:
  2636                           
  2637                           ;main.c: 98:                 case 1:;main.c: 99: 
  2638     0119  160A  118A  218D  120A  118A  	fcall	_clear_screen
  2639     011E                     l4922:
  2640                           
  2641                           ;main.c: 101:                     control_flag = 0x09;
  2642     011E  3014               	movlw	low (STR_9| (0+32768))
  2643     011F  00F6               	movwf	clcd_print@str
  2644     0120  3088               	movlw	high (STR_9| (0+32768))
  2645     0121  00F7               	movwf	clcd_print@str+1
  2646     0122  3080               	movlw	128
  2647     0123  00F8               	movwf	clcd_print@addr
  2648     0124  160A  118A  23A2  120A  118A  	fcall	_clcd_print
  2649     0129                     l4924:
  2650                           
  2651                           ;main.c: 103:                     break;
  2652     0129  01F2               	clrf	clcd_write@mode
  2653     012A  30C6               	movlw	198
  2654     012B  160A  118A  221E  120A  118A  	fcall	_clcd_write
  2655     0130                     l4926:
  2656                           
  2657                           ;main.c: 104: 
  2658     0130  01F2               	clrf	clcd_write@mode
  2659     0131  300F               	movlw	15
  2660     0132  160A  118A  221E  120A  118A  	fcall	_clcd_write
  2661     0137                     l4928:
  2662                           
  2663                           ;main.c: 105:                 case 2:
  2664     0137  30A5               	movlw	165
  2665     0138  1283               	bcf	3,5	;RP0=0, select bank0
  2666     0139  1303               	bcf	3,6	;RP1=0, select bank0
  2667     013A  00E3               	movwf	??_main
  2668     013B                     u4927:
  2669     013B  0BE3               	decfsz	??_main,f
  2670     013C  293B               	goto	u4927
  2671     013D  293E               	nop2
  2672     013E                     l4930:
  2673                           
  2674                           ;main.c: 107:                     clear_screen();
  2675     013E  3002               	movlw	2
  2676     013F  1683               	bsf	3,5	;RP0=1, select bank1
  2677     0140  1303               	bcf	3,6	;RP1=0, select bank1
  2678     0141  00D8               	movwf	main@control_flag^(0+128)
  2679     0142                     l4932:
  2680                           
  2681                           ;main.c: 109:                     clcd_print("      Open      ", (0x80 + 0));
  2682     0142  3060               	movlw	96
  2683     0143  00D6               	movwf	main@reset_flag^(0+128)
  2684     0144                     l4934:
  2685                           
  2686                           ;main.c: 111:                     download_log();
  2687     0144  1283               	bcf	3,5	;RP0=0, select bank0
  2688     0145  1303               	bcf	3,6	;RP1=0, select bank0
  2689     0146  1512               	bsf	18,2	;volatile
  2690                           
  2691                           ;main.c: 112:                     _delay((unsigned long)((2000)*(20000000/4000.0)));
  2692     0147  2B5B               	goto	l5094
  2693     0148                     l4936:
  2694     0148  3080               	movlw	128
  2695     0149  0659               	xorwf	main@key^(0+128),w
  2696     014A  1D03               	btfss	3,2
  2697     014B  294D               	goto	u4811
  2698     014C  294E               	goto	u4810
  2699     014D                     u4811:
  2700     014D  29F6               	goto	l4992
  2701     014E                     u4810:
  2702     014E                     l4938:
  2703     014E  3003               	movlw	3
  2704     014F  0658               	xorwf	main@control_flag^(0+128),w
  2705     0150  1D03               	btfss	3,2
  2706     0151  2953               	goto	u4821
  2707     0152  2954               	goto	u4820
  2708     0153                     u4821:
  2709     0153  29F6               	goto	l4992
  2710     0154                     u4820:
  2711     0154  29E5               	goto	l4990
  2712     0155                     l4942:
  2713                           
  2714                           ;main.c: 120:                     control_flag = 0x11;
  2715     0155  160A  118A  218D  120A  118A  	fcall	_clear_screen
  2716     015A                     l4944:
  2717                           
  2718                           ;main.c: 121:                     reset_flag = 0x60;
  2719     015A  30F2               	movlw	low (STR_10| (0+32768))
  2720     015B  00F6               	movwf	clcd_print@str
  2721     015C  3087               	movlw	high (STR_10| (0+32768))
  2722     015D  00F7               	movwf	clcd_print@str+1
  2723     015E  3080               	movlw	128
  2724     015F  00F8               	movwf	clcd_print@addr
  2725     0160  160A  118A  23A2  120A  118A  	fcall	_clcd_print
  2726     0165                     l4946:
  2727                           
  2728                           ;main.c: 122:                     TMR2ON = 1;
  2729     0165  3008               	movlw	8
  2730     0166  1683               	bsf	3,5	;RP0=1, select bank1
  2731     0167  1303               	bcf	3,6	;RP1=0, select bank1
  2732     0168  00D8               	movwf	main@control_flag^(0+128)
  2733     0169                     l4948:
  2734                           
  2735                           ;main.c: 123:                     break;
  2736     0169  3020               	movlw	32
  2737     016A  00D6               	movwf	main@reset_flag^(0+128)
  2738                           
  2739                           ;main.c: 124: 
  2740     016B  2B5B               	goto	l5094
  2741     016C                     l4950:
  2742                           
  2743                           ;main.c: 128:                     log_car_event("ST", speed);
  2744     016C  160A  118A  218D  120A  118A  	fcall	_clear_screen
  2745     0171                     l4952:
  2746                           
  2747                           ;main.c: 129:                     control_flag = 0x12;
  2748     0171  3009               	movlw	9
  2749     0172  1683               	bsf	3,5	;RP0=1, select bank1
  2750     0173  1303               	bcf	3,6	;RP1=0, select bank1
  2751     0174  00D8               	movwf	main@control_flag^(0+128)
  2752     0175                     l4954:
  2753                           
  2754                           ;main.c: 130:                     reset_flag = 0x30;
  2755     0175  3040               	movlw	64
  2756     0176  00D6               	movwf	main@reset_flag^(0+128)
  2757                           
  2758                           ;main.c: 131:                     break;
  2759     0177  2B5B               	goto	l5094
  2760     0178                     l4956:
  2761                           
  2762                           ;main.c: 135:         else if (key == 0x80 && control_flag == 0x08)
  2763     0178  160A  118A  218D  120A  118A  	fcall	_clear_screen
  2764     017D                     l4958:
  2765                           
  2766                           ;main.c: 136:         {
  2767     017D  30E2               	movlw	low (STR_11| (0+32768))
  2768     017E  1283               	bcf	3,5	;RP0=0, select bank0
  2769     017F  1303               	bcf	3,6	;RP1=0, select bank0
  2770     0180  00C6               	movwf	log_car_event@event
  2771     0181  3088               	movlw	high (STR_11| (0+32768))
  2772     0182  00C7               	movwf	log_car_event@event+1
  2773     0183  1683               	bsf	3,5	;RP0=1, select bank1
  2774     0184  1303               	bcf	3,6	;RP1=0, select bank1
  2775     0185  0857               	movf	main@speed^(0+128),w
  2776     0186  1283               	bcf	3,5	;RP0=0, select bank0
  2777     0187  1303               	bcf	3,6	;RP1=0, select bank0
  2778     0188  00C8               	movwf	log_car_event@speed
  2779     0189  160A  118A  274F  120A  118A  	fcall	_log_car_event
  2780     018E                     l4960:
  2781                           
  2782                           ;main.c: 137:             control_flag = 0x03;
  2783     018E  30E1               	movlw	low (STR_12| (0+32768))
  2784     018F  00F6               	movwf	clcd_print@str
  2785     0190  3087               	movlw	high (STR_12| (0+32768))
  2786     0191  00F7               	movwf	clcd_print@str+1
  2787     0192  3080               	movlw	128
  2788     0193  00F8               	movwf	clcd_print@addr
  2789     0194  160A  118A  23A2  120A  118A  	fcall	_clcd_print
  2790     0199                     l4962:
  2791                           
  2792                           ;main.c: 138:             clear_screen();
  2793     0199  3003               	movlw	low (STR_13| (0+32768))
  2794     019A  00F6               	movwf	clcd_print@str
  2795     019B  3088               	movlw	high (STR_13| (0+32768))
  2796     019C  00F7               	movwf	clcd_print@str+1
  2797     019D  30C0               	movlw	192
  2798     019E  00F8               	movwf	clcd_print@addr
  2799     019F  160A  118A  23A2  120A  118A  	fcall	_clcd_print
  2800     01A4                     l4964:
  2801                           
  2802                           ;main.c: 139:         }
  2803     01A4  120A  158A  2265  120A  118A  	fcall	_download_log
  2804     01A9                     l4966:
  2805                           
  2806                           ;main.c: 140: 
  2807     01A9  3033               	movlw	51
  2808     01AA  1283               	bcf	3,5	;RP0=0, select bank0
  2809     01AB  1303               	bcf	3,6	;RP1=0, select bank0
  2810     01AC  00E5               	movwf	??_main+2
  2811     01AD  30BB               	movlw	187
  2812     01AE  00E4               	movwf	??_main+1
  2813     01AF  30DF               	movlw	223
  2814     01B0  00E3               	movwf	??_main
  2815     01B1                     u4937:
  2816     01B1  0BE3               	decfsz	??_main,f
  2817     01B2  29B1               	goto	u4937
  2818     01B3  0BE4               	decfsz	??_main+1,f
  2819     01B4  29B1               	goto	u4937
  2820     01B5  0BE5               	decfsz	??_main+2,f
  2821     01B6  29B1               	goto	u4937
  2822     01B7                     l4968:
  2823                           
  2824                           ;main.c: 141:         else if (key == 0x80 && control_flag == 0x11)
  2825     01B7  3003               	movlw	3
  2826     01B8  1683               	bsf	3,5	;RP0=1, select bank1
  2827     01B9  1303               	bcf	3,6	;RP1=0, select bank1
  2828     01BA  00D8               	movwf	main@control_flag^(0+128)
  2829     01BB                     l4970:
  2830                           
  2831                           ;main.c: 142:         {
  2832     01BB  3050               	movlw	80
  2833     01BC  00D6               	movwf	main@reset_flag^(0+128)
  2834                           
  2835                           ;main.c: 143:             control_flag = 0x03;
  2836     01BD  2B5B               	goto	l5094
  2837     01BE                     l4972:
  2838                           
  2839                           ;main.c: 147:         else if (key == 0x90 && control_flag == 0x03)
  2840     01BE  160A  118A  218D  120A  118A  	fcall	_clear_screen
  2841     01C3                     l4974:
  2842                           
  2843                           ;main.c: 148:         {
  2844     01C3  3011               	movlw	17
  2845     01C4  1683               	bsf	3,5	;RP0=1, select bank1
  2846     01C5  1303               	bcf	3,6	;RP1=0, select bank1
  2847     01C6  00D8               	movwf	main@control_flag^(0+128)
  2848     01C7  2942               	goto	l4932
  2849     01C8                     l4980:
  2850                           
  2851                           ;main.c: 155: 
  2852     01C8  160A  118A  218D  120A  118A  	fcall	_clear_screen
  2853     01CD                     l4982:
  2854                           
  2855                           ;main.c: 156: 
  2856     01CD  30F1               	movlw	low (STR_14| (0+32768))
  2857     01CE  1283               	bcf	3,5	;RP0=0, select bank0
  2858     01CF  1303               	bcf	3,6	;RP1=0, select bank0
  2859     01D0  00C6               	movwf	log_car_event@event
  2860     01D1  3088               	movlw	high (STR_14| (0+32768))
  2861     01D2  00C7               	movwf	log_car_event@event+1
  2862     01D3  1683               	bsf	3,5	;RP0=1, select bank1
  2863     01D4  1303               	bcf	3,6	;RP1=0, select bank1
  2864     01D5  0857               	movf	main@speed^(0+128),w
  2865     01D6  1283               	bcf	3,5	;RP0=0, select bank0
  2866     01D7  1303               	bcf	3,6	;RP1=0, select bank0
  2867     01D8  00C8               	movwf	log_car_event@speed
  2868     01D9  160A  118A  274F  120A  118A  	fcall	_log_car_event
  2869     01DE                     l4984:
  2870                           
  2871                           ;main.c: 157: 
  2872     01DE  3012               	movlw	18
  2873     01DF  1683               	bsf	3,5	;RP0=1, select bank1
  2874     01E0  1303               	bcf	3,6	;RP1=0, select bank1
  2875     01E1  00D8               	movwf	main@control_flag^(0+128)
  2876     01E2                     l4986:
  2877                           
  2878                           ;main.c: 158:         switch (control_flag)
  2879     01E2  3030               	movlw	48
  2880     01E3  00D6               	movwf	main@reset_flag^(0+128)
  2881                           
  2882                           ;main.c: 159:         {
  2883     01E4  2B5B               	goto	l5094
  2884     01E5                     l4990:
  2885     01E5  0851               	movf	main@menu_pos^(0+128),w
  2886                           
  2887                           ; Switch size 1, requested type "simple"
  2888                           ; Number of cases is 5, Range of values is 0 to 4
  2889                           ; switch strategies available:
  2890                           ; Name         Instructions Cycles
  2891                           ; simple_byte           16     9 (average)
  2892                           ; direct_byte           23     8 (fixed)
  2893                           ; jumptable            260     6 (fixed)
  2894                           ;	Chosen strategy is simple_byte
  2895     01E6  3A00               	xorlw	0	; case 0
  2896     01E7  1903               	skipnz
  2897     01E8  2955               	goto	l4942
  2898     01E9  3A01               	xorlw	1	; case 1
  2899     01EA  1903               	skipnz
  2900     01EB  296C               	goto	l4950
  2901     01EC  3A03               	xorlw	3	; case 2
  2902     01ED  1903               	skipnz
  2903     01EE  2978               	goto	l4956
  2904     01EF  3A01               	xorlw	1	; case 3
  2905     01F0  1903               	skipnz
  2906     01F1  29BE               	goto	l4972
  2907     01F2  3A07               	xorlw	7	; case 4
  2908     01F3  1903               	skipnz
  2909     01F4  29C8               	goto	l4980
  2910     01F5  2B5B               	goto	l5094
  2911     01F6                     l4992:
  2912     01F6  3080               	movlw	128
  2913     01F7  0659               	xorwf	main@key^(0+128),w
  2914     01F8  1D03               	btfss	3,2
  2915     01F9  29FB               	goto	u4831
  2916     01FA  29FC               	goto	u4830
  2917     01FB                     u4831:
  2918     01FB  2A0A               	goto	l5000
  2919     01FC                     u4830:
  2920     01FC                     l4994:
  2921     01FC  3008               	movlw	8
  2922     01FD  0658               	xorwf	main@control_flag^(0+128),w
  2923     01FE  1D03               	btfss	3,2
  2924     01FF  2A01               	goto	u4841
  2925     0200  2A02               	goto	u4840
  2926     0201                     u4841:
  2927     0201  2A0A               	goto	l5000
  2928     0202                     u4840:
  2929     0202                     l4996:
  2930                           
  2931                           ;main.c: 164: ;main.c: 165:             case 0x02:
  2932     0202  3003               	movlw	3
  2933     0203  00D8               	movwf	main@control_flag^(0+128)
  2934     0204                     l4998:
  2935                           
  2936                           ;main.c: 166: 
  2937     0204  160A  118A  218D  120A  118A  	fcall	_clear_screen
  2938                           
  2939                           ;main.c: 167:                 switch (login(key, reset_flag))
  2940     0209  2B5B               	goto	l5094
  2941     020A                     l5000:
  2942     020A  3080               	movlw	128
  2943     020B  0659               	xorwf	main@key^(0+128),w
  2944     020C  1D03               	btfss	3,2
  2945     020D  2A0F               	goto	u4851
  2946     020E  2A10               	goto	u4850
  2947     020F                     u4851:
  2948     020F  2A17               	goto	l5008
  2949     0210                     u4850:
  2950     0210                     l5002:
  2951     0210  3011               	movlw	17
  2952     0211  0658               	xorwf	main@control_flag^(0+128),w
  2953     0212  1D03               	btfss	3,2
  2954     0213  2A15               	goto	u4861
  2955     0214  2A16               	goto	u4860
  2956     0215                     u4861:
  2957     0215  2A17               	goto	l5008
  2958     0216                     u4860:
  2959     0216  2A02               	goto	l4996
  2960     0217                     l5008:
  2961     0217  3090               	movlw	144
  2962     0218  0659               	xorwf	main@key^(0+128),w
  2963     0219  1D03               	btfss	3,2
  2964     021A  2A1C               	goto	u4871
  2965     021B  2A1D               	goto	u4870
  2966     021C                     u4871:
  2967     021C  2A26               	goto	l77
  2968     021D                     u4870:
  2969     021D                     l5010:
  2970     021D  3003               	movlw	3
  2971     021E  0658               	xorwf	main@control_flag^(0+128),w
  2972     021F  1D03               	btfss	3,2
  2973     0220  2A22               	goto	u4881
  2974     0221  2A23               	goto	u4880
  2975     0222                     u4881:
  2976     0222  2A26               	goto	l77
  2977     0223                     u4880:
  2978     0223                     l5012:
  2979                           
  2980                           ;main.c: 176:                         break;;main.c: 177: 
  2981     0223  01D8               	clrf	main@control_flag^(0+128)
  2982     0224  0AD8               	incf	main@control_flag^(0+128),f
  2983     0225  2A04               	goto	l4998
  2984     0226                     l77:
  2985     0226  2B5B               	goto	l5094
  2986     0227                     l5016:
  2987                           
  2988                           ;main.c: 190:             case 0x03:
  2989     0227  0857               	movf	main@speed^(0+128),w
  2990     0228  1283               	bcf	3,5	;RP0=0, select bank0
  2991     0229  1303               	bcf	3,6	;RP1=0, select bank0
  2992     022A  00CF               	movwf	display_dashboard@speed
  2993     022B  30D2               	movlw	(low (main@event| 0))& (0+255)
  2994     022C  160A  118A  26A1  120A  118A  	fcall	_display_dashboard
  2995                           
  2996                           ;main.c: 191: 
  2997     0231  2B74               	goto	l5096
  2998     0232                     l97:	
  2999                           ;main.c: 196:                         control_flag = 0x01;;main.c: 197:                 
      +                                  TMR2ON = 0;
  3000                           
  3001                           
  3002                           ;main.c: 199: 
  3003     0232  1683               	bsf	3,5	;RP0=1, select bank1
  3004     0233  1303               	bcf	3,6	;RP1=0, select bank1
  3005     0234  01D8               	clrf	main@control_flag^(0+128)
  3006     0235  0AD8               	incf	main@control_flag^(0+128),f
  3007                           
  3008                           ;main.c: 200:                     case 0:
  3009     0236  1283               	bcf	3,5	;RP0=0, select bank0
  3010     0237  1303               	bcf	3,6	;RP1=0, select bank0
  3011     0238  1112               	bcf	18,2	;volatile
  3012     0239                     l5018:
  3013                           
  3014                           ;main.c: 202:                         break;
  3015     0239  01F2               	clrf	clcd_write@mode
  3016     023A  300C               	movlw	12
  3017     023B  160A  118A  221E  120A  118A  	fcall	_clcd_write
  3018     0240                     l5020:
  3019                           
  3020                           ;main.c: 203: 
  3021     0240  30A5               	movlw	165
  3022     0241  1283               	bcf	3,5	;RP0=0, select bank0
  3023     0242  1303               	bcf	3,6	;RP1=0, select bank0
  3024     0243  00E3               	movwf	??_main
  3025     0244                     u4947:
  3026     0244  0BE3               	decfsz	??_main,f
  3027     0245  2A44               	goto	u4947
  3028     0246  2A47               	nop2
  3029                           
  3030                           ;main.c: 204:                     case 1:
  3031     0247  2B74               	goto	l5096
  3032     0248                     l5022:
  3033                           
  3034                           ;main.c: 208:                     case 2:
  3035     0248  3003               	movlw	3
  3036     0249  1683               	bsf	3,5	;RP0=1, select bank1
  3037     024A  1303               	bcf	3,6	;RP1=0, select bank1
  3038     024B  00D8               	movwf	main@control_flag^(0+128)
  3039                           
  3040                           ;main.c: 209:                         menu_pos = 2;
  3041     024C  3070               	movlw	112
  3042     024D  00D6               	movwf	main@reset_flag^(0+128)
  3043     024E                     l5024:
  3044                           
  3045                           ;main.c: 210:                         break;
  3046     024E  1283               	bcf	3,5	;RP0=0, select bank0
  3047     024F  1303               	bcf	3,6	;RP1=0, select bank0
  3048     0250  1512               	bsf	18,2	;volatile
  3049     0251                     l5026:
  3050                           
  3051                           ;main.c: 211: 
  3052     0251  01F2               	clrf	clcd_write@mode
  3053     0252  300C               	movlw	12
  3054     0253  160A  118A  221E  120A  118A  	fcall	_clcd_write
  3055     0258                     l5028:
  3056                           
  3057                           ;main.c: 212:                     case 3:
  3058     0258  30A5               	movlw	165
  3059     0259  1283               	bcf	3,5	;RP0=0, select bank0
  3060     025A  1303               	bcf	3,6	;RP1=0, select bank0
  3061     025B  00E3               	movwf	??_main
  3062     025C                     u4957:
  3063     025C  0BE3               	decfsz	??_main,f
  3064     025D  2A5C               	goto	u4957
  3065     025E  2A5F               	nop2
  3066                           
  3067                           ;main.c: 213:                         menu_pos = 3;
  3068     025F  2866               	goto	l4884
  3069     0260                     l5034:
  3070     0260  0856               	movf	main@reset_flag^(0+128),w
  3071     0261  1283               	bcf	3,5	;RP0=0, select bank0
  3072     0262  1303               	bcf	3,6	;RP1=0, select bank0
  3073     0263  00CF               	movwf	login@reset_flag
  3074     0264  1683               	bsf	3,5	;RP0=1, select bank1
  3075     0265  1303               	bcf	3,6	;RP1=0, select bank1
  3076     0266  0859               	movf	main@key^(0+128),w
  3077     0267  120A  158A  265E  120A  118A  	fcall	_login
  3078                           
  3079                           ; Switch size 1, requested type "simple"
  3080                           ; Number of cases is 2, Range of values is 10 to 11
  3081                           ; switch strategies available:
  3082                           ; Name         Instructions Cycles
  3083                           ; simple_byte            7     4 (average)
  3084                           ; direct_byte           17    11 (fixed)
  3085                           ; jumptable            263     9 (fixed)
  3086                           ;	Chosen strategy is simple_byte
  3087     026C  3A0A               	xorlw	10	; case 10
  3088     026D  1903               	skipnz
  3089     026E  2A32               	goto	l97
  3090     026F  3A01               	xorlw	1	; case 11
  3091     0270  1903               	skipnz
  3092     0271  2A48               	goto	l5022
  3093     0272  2B74               	goto	l5096
  3094     0273                     l5036:
  3095                           
  3096                           ;main.c: 223: 
  3097     0273  160A  118A  218D  120A  118A  	fcall	_clear_screen
  3098     0278                     l5038:
  3099                           
  3100                           ;main.c: 224:                 view_log(key, reset_flag);
  3101     0278  1683               	bsf	3,5	;RP0=1, select bank1
  3102     0279  1303               	bcf	3,6	;RP1=0, select bank1
  3103     027A  01D8               	clrf	main@control_flag^(0+128)
  3104     027B  0AD8               	incf	main@control_flag^(0+128),f
  3105     027C                     l5040:
  3106                           
  3107                           ;main.c: 225:                 break;
  3108     027C  1283               	bcf	3,5	;RP0=0, select bank0
  3109     027D  1303               	bcf	3,6	;RP1=0, select bank0
  3110     027E  1112               	bcf	18,2	;volatile
  3111                           
  3112                           ;main.c: 226: 
  3113     027F  2B74               	goto	l5096
  3114     0280                     l5042:
  3115                           
  3116                           ;main.c: 229:                 if (clear_log(reset_flag) == 0x0C)
  3117     0280  1683               	bsf	3,5	;RP0=1, select bank1
  3118     0281  1303               	bcf	3,6	;RP1=0, select bank1
  3119     0282  01D1               	clrf	main@menu_pos^(0+128)
  3120                           
  3121                           ;main.c: 230:                     _delay((unsigned long)((1000)*(20000000/4000.0)));
  3122     0283  2B74               	goto	l5096
  3123     0284                     l106:	
  3124                           ;main.c: 232:                 if (reset_flag == 0x40)
  3125                           
  3126                           
  3127                           ;main.c: 233:                     log_car_event("CL", speed);
  3128     0284  1683               	bsf	3,5	;RP0=1, select bank1
  3129     0285  1303               	bcf	3,6	;RP1=0, select bank1
  3130     0286  01D1               	clrf	main@menu_pos^(0+128)
  3131     0287  0AD1               	incf	main@menu_pos^(0+128),f
  3132                           
  3133                           ;main.c: 234: 
  3134     0288  2B74               	goto	l5096
  3135     0289                     l5044:
  3136                           
  3137                           ;main.c: 237:                 clear_screen();
  3138     0289  3002               	movlw	2
  3139     028A  1683               	bsf	3,5	;RP0=1, select bank1
  3140     028B  1303               	bcf	3,6	;RP1=0, select bank1
  3141     028C  00D1               	movwf	main@menu_pos^(0+128)
  3142                           
  3143                           ;main.c: 238:                 break;
  3144     028D  2B74               	goto	l5096
  3145     028E                     l5046:
  3146                           
  3147                           ;main.c: 241: 
  3148     028E  3003               	movlw	3
  3149     028F  1683               	bsf	3,5	;RP0=1, select bank1
  3150     0290  1303               	bcf	3,6	;RP1=0, select bank1
  3151     0291  00D1               	movwf	main@menu_pos^(0+128)
  3152                           
  3153                           ;main.c: 242:                 switch (change_password(key, reset_flag))
  3154     0292  2B74               	goto	l5096
  3155     0293                     l5048:
  3156                           
  3157                           ;main.c: 245:                         _delay((unsigned long)((1000)*(20000000/4000.0)));
  3158     0293  3004               	movlw	4
  3159     0294  1683               	bsf	3,5	;RP0=1, select bank1
  3160     0295  1303               	bcf	3,6	;RP1=0, select bank1
  3161     0296  00D1               	movwf	main@menu_pos^(0+128)
  3162                           
  3163                           ;main.c: 246:                         log_car_event("CP", speed);
  3164     0297  2B74               	goto	l5096
  3165     0298                     l5052:
  3166     0298  0856               	movf	main@reset_flag^(0+128),w
  3167     0299  1283               	bcf	3,5	;RP0=0, select bank0
  3168     029A  1303               	bcf	3,6	;RP1=0, select bank0
  3169     029B  00CF               	movwf	login_menu@reset_flag
  3170     029C  1683               	bsf	3,5	;RP0=1, select bank1
  3171     029D  1303               	bcf	3,6	;RP1=0, select bank1
  3172     029E  0859               	movf	main@key^(0+128),w
  3173     029F  120A  118A  2646  120A  118A  	fcall	_login_menu
  3174                           
  3175                           ; Switch size 1, requested type "simple"
  3176                           ; Number of cases is 6, Range of values is 0 to 10
  3177                           ; switch strategies available:
  3178                           ; Name         Instructions Cycles
  3179                           ; simple_byte           19    10 (average)
  3180                           ; direct_byte           41     8 (fixed)
  3181                           ; jumptable            260     6 (fixed)
  3182                           ;	Chosen strategy is simple_byte
  3183     02A4  3A00               	xorlw	0	; case 0
  3184     02A5  1903               	skipnz
  3185     02A6  2A80               	goto	l5042
  3186     02A7  3A01               	xorlw	1	; case 1
  3187     02A8  1903               	skipnz
  3188     02A9  2A84               	goto	l106
  3189     02AA  3A03               	xorlw	3	; case 2
  3190     02AB  1903               	skipnz
  3191     02AC  2A89               	goto	l5044
  3192     02AD  3A01               	xorlw	1	; case 3
  3193     02AE  1903               	skipnz
  3194     02AF  2A8E               	goto	l5046
  3195     02B0  3A07               	xorlw	7	; case 4
  3196     02B1  1903               	skipnz
  3197     02B2  2A93               	goto	l5048
  3198     02B3  3A0E               	xorlw	14	; case 10
  3199     02B4  1903               	skipnz
  3200     02B5  2A73               	goto	l5036
  3201     02B6  2B74               	goto	l5096
  3202     02B7                     l5054:
  3203                           
  3204                           ;main.c: 252:                     case 0x0A:
  3205     02B7  0856               	movf	main@reset_flag^(0+128),w
  3206     02B8  1283               	bcf	3,5	;RP0=0, select bank0
  3207     02B9  1303               	bcf	3,6	;RP1=0, select bank0
  3208     02BA  00CF               	movwf	view_log@reset_index
  3209     02BB  1683               	bsf	3,5	;RP0=1, select bank1
  3210     02BC  1303               	bcf	3,6	;RP1=0, select bank1
  3211     02BD  0859               	movf	main@key^(0+128),w
  3212     02BE  120A  158A  2381  120A  118A  	fcall	_view_log
  3213                           
  3214                           ;main.c: 253:                         control_flag = 0x01;
  3215     02C3  2B74               	goto	l5096
  3216     02C4                     l5056:
  3217                           
  3218                           ;main.c: 257:                 break;
  3219     02C4  0856               	movf	main@reset_flag^(0+128),w
  3220     02C5  160A  118A  231F  120A  118A  	fcall	_clear_log
  3221     02CA  3A0C               	xorlw	12
  3222     02CB  1D03               	skipz
  3223     02CC  2ACE               	goto	u4891
  3224     02CD  2ACF               	goto	u4890
  3225     02CE                     u4891:
  3226     02CE  2ADE               	goto	l5060
  3227     02CF                     u4890:
  3228     02CF                     l5058:
  3229                           
  3230                           ;main.c: 258: 
  3231     02CF  301A               	movlw	26
  3232     02D0  1283               	bcf	3,5	;RP0=0, select bank0
  3233     02D1  1303               	bcf	3,6	;RP1=0, select bank0
  3234     02D2  00E5               	movwf	??_main+2
  3235     02D3  305E               	movlw	94
  3236     02D4  00E4               	movwf	??_main+1
  3237     02D5  306D               	movlw	109
  3238     02D6  00E3               	movwf	??_main
  3239     02D7                     u4967:
  3240     02D7  0BE3               	decfsz	??_main,f
  3241     02D8  2AD7               	goto	u4967
  3242     02D9  0BE4               	decfsz	??_main+1,f
  3243     02DA  2AD7               	goto	u4967
  3244     02DB  0BE5               	decfsz	??_main+2,f
  3245     02DC  2AD7               	goto	u4967
  3246     02DD  2ADE               	nop2
  3247     02DE                     l5060:
  3248                           
  3249                           ;main.c: 260: 
  3250     02DE  3040               	movlw	64
  3251     02DF  1683               	bsf	3,5	;RP0=1, select bank1
  3252     02E0  1303               	bcf	3,6	;RP1=0, select bank1
  3253     02E1  0656               	xorwf	main@reset_flag^(0+128),w
  3254     02E2  1D03               	btfss	3,2
  3255     02E3  2AE5               	goto	u4901
  3256     02E4  2AE6               	goto	u4900
  3257     02E5                     u4901:
  3258     02E5  2AF7               	goto	l5064
  3259     02E6                     u4900:
  3260     02E6                     l5062:
  3261                           
  3262                           ;main.c: 261:                 if (change_time(key, reset_flag) == 0x0C)
  3263     02E6  30DF               	movlw	low (STR_15| (0+32768))
  3264     02E7  1283               	bcf	3,5	;RP0=0, select bank0
  3265     02E8  1303               	bcf	3,6	;RP1=0, select bank0
  3266     02E9  00C6               	movwf	log_car_event@event
  3267     02EA  3088               	movlw	high (STR_15| (0+32768))
  3268     02EB  00C7               	movwf	log_car_event@event+1
  3269     02EC  1683               	bsf	3,5	;RP0=1, select bank1
  3270     02ED  1303               	bcf	3,6	;RP1=0, select bank1
  3271     02EE  0857               	movf	main@speed^(0+128),w
  3272     02EF  1283               	bcf	3,5	;RP0=0, select bank0
  3273     02F0  1303               	bcf	3,6	;RP1=0, select bank0
  3274     02F1  00C8               	movwf	log_car_event@speed
  3275     02F2  160A  118A  274F  120A  118A  	fcall	_log_car_event
  3276     02F7                     l5064:
  3277                           
  3278                           ;main.c: 263:                     control_flag = 0x03;
  3279     02F7  3003               	movlw	3
  3280     02F8  1683               	bsf	3,5	;RP0=1, select bank1
  3281     02F9  1303               	bcf	3,6	;RP1=0, select bank1
  3282     02FA  00D8               	movwf	main@control_flag^(0+128)
  3283     02FB                     l5066:
  3284                           
  3285                           ;main.c: 264:                     reset_flag = 0x50;
  3286     02FB  3050               	movlw	80
  3287     02FC  00D6               	movwf	main@reset_flag^(0+128)
  3288     02FD                     l5068:
  3289                           
  3290                           ;main.c: 265:                     clear_screen();
  3291     02FD  160A  118A  218D  120A  118A  	fcall	_clear_screen
  3292                           
  3293                           ;main.c: 266:                     continue;
  3294     0302  2B74               	goto	l5096
  3295     0303                     l5070:
  3296                           
  3297                           ;main.c: 273:     return;
  3298     0303  301A               	movlw	26
  3299     0304  1283               	bcf	3,5	;RP0=0, select bank0
  3300     0305  1303               	bcf	3,6	;RP1=0, select bank0
  3301     0306  00E5               	movwf	??_main+2
  3302     0307  305E               	movlw	94
  3303     0308  00E4               	movwf	??_main+1
  3304     0309  306D               	movlw	109
  3305     030A  00E3               	movwf	??_main
  3306     030B                     u4977:
  3307     030B  0BE3               	decfsz	??_main,f
  3308     030C  2B0B               	goto	u4977
  3309     030D  0BE4               	decfsz	??_main+1,f
  3310     030E  2B0B               	goto	u4977
  3311     030F  0BE5               	decfsz	??_main+2,f
  3312     0310  2B0B               	goto	u4977
  3313     0311  2B12               	nop2
  3314     0312                     l5072:
  3315                           
  3316                           ;main.c: 274: }
  3317     0312  30EB               	movlw	low (STR_16| (0+32768))
  3318     0313  1283               	bcf	3,5	;RP0=0, select bank0
  3319     0314  1303               	bcf	3,6	;RP1=0, select bank0
  3320     0315  00C6               	movwf	log_car_event@event
  3321     0316  3088               	movlw	high (STR_16| (0+32768))
  3322     0317  00C7               	movwf	log_car_event@event+1
  3323     0318  1683               	bsf	3,5	;RP0=1, select bank1
  3324     0319  1303               	bcf	3,6	;RP1=0, select bank1
  3325     031A  0857               	movf	main@speed^(0+128),w
  3326     031B  1283               	bcf	3,5	;RP0=0, select bank0
  3327     031C  1303               	bcf	3,6	;RP1=0, select bank0
  3328     031D  00C8               	movwf	log_car_event@speed
  3329     031E  160A  118A  274F  120A  118A  	fcall	_log_car_event
  3330     0323  2AF7               	goto	l5064
  3331     0324                     l118:
  3332     0324  1683               	bsf	3,5	;RP0=1, select bank1
  3333     0325  1303               	bcf	3,6	;RP1=0, select bank1
  3334     0326  01D8               	clrf	main@control_flag^(0+128)
  3335     0327  0AD8               	incf	main@control_flag^(0+128),f
  3336     0328                     l5080:
  3337     0328  3050               	movlw	80
  3338     0329  00D6               	movwf	main@reset_flag^(0+128)
  3339     032A  2B74               	goto	l5096
  3340     032B                     l5084:
  3341     032B  0856               	movf	main@reset_flag^(0+128),w
  3342     032C  1283               	bcf	3,5	;RP0=0, select bank0
  3343     032D  1303               	bcf	3,6	;RP1=0, select bank0
  3344     032E  00CF               	movwf	change_password@reset_pwd
  3345     032F  1683               	bsf	3,5	;RP0=1, select bank1
  3346     0330  1303               	bcf	3,6	;RP1=0, select bank1
  3347     0331  0859               	movf	main@key^(0+128),w
  3348     0332  120A  158A  24C1  120A  118A  	fcall	_change_password
  3349                           
  3350                           ; Switch size 1, requested type "simple"
  3351                           ; Number of cases is 2, Range of values is 10 to 12
  3352                           ; switch strategies available:
  3353                           ; Name         Instructions Cycles
  3354                           ; simple_byte            7     4 (average)
  3355                           ; direct_byte           20    11 (fixed)
  3356                           ; jumptable            263     9 (fixed)
  3357                           ;	Chosen strategy is simple_byte
  3358     0337  3A0A               	xorlw	10	; case 10
  3359     0338  1903               	skipnz
  3360     0339  2B24               	goto	l118
  3361     033A  3A06               	xorlw	6	; case 12
  3362     033B  1903               	skipnz
  3363     033C  2B03               	goto	l5070
  3364     033D  2B74               	goto	l5096
  3365     033E                     l5086:
  3366     033E  0856               	movf	main@reset_flag^(0+128),w
  3367     033F  1283               	bcf	3,5	;RP0=0, select bank0
  3368     0340  1303               	bcf	3,6	;RP1=0, select bank0
  3369     0341  00CF               	movwf	change_time@reset_time
  3370     0342  1683               	bsf	3,5	;RP0=1, select bank1
  3371     0343  1303               	bcf	3,6	;RP1=0, select bank1
  3372     0344  0859               	movf	main@key^(0+128),w
  3373     0345  120A  118A  237C  120A  118A  	fcall	_change_time
  3374     034A  3A0C               	xorlw	12
  3375     034B  1D03               	skipz
  3376     034C  2B4E               	goto	u4911
  3377     034D  2B4F               	goto	u4910
  3378     034E                     u4911:
  3379     034E  2B74               	goto	l5096
  3380     034F                     u4910:
  3381     034F                     l5088:
  3382     034F  3003               	movlw	3
  3383     0350  1683               	bsf	3,5	;RP0=1, select bank1
  3384     0351  1303               	bcf	3,6	;RP1=0, select bank1
  3385     0352  00D8               	movwf	main@control_flag^(0+128)
  3386     0353  3050               	movlw	80
  3387     0354  00D6               	movwf	main@reset_flag^(0+128)
  3388     0355                     l5090:
  3389     0355  160A  118A  218D  120A  118A  	fcall	_clear_screen
  3390     035A  2866               	goto	l4884
  3391     035B                     l5094:
  3392     035B  1683               	bsf	3,5	;RP0=1, select bank1
  3393     035C  1303               	bcf	3,6	;RP1=0, select bank1
  3394     035D  0858               	movf	main@control_flag^(0+128),w
  3395                           
  3396                           ; Switch size 1, requested type "simple"
  3397                           ; Number of cases is 7, Range of values is 1 to 18
  3398                           ; switch strategies available:
  3399                           ; Name         Instructions Cycles
  3400                           ; simple_byte           22    12 (average)
  3401                           ; direct_byte           65    11 (fixed)
  3402                           ; jumptable            263     9 (fixed)
  3403                           ;	Chosen strategy is simple_byte
  3404     035E  3A01               	xorlw	1	; case 1
  3405     035F  1903               	skipnz
  3406     0360  2A27               	goto	l5016
  3407     0361  3A03               	xorlw	3	; case 2
  3408     0362  1903               	skipnz
  3409     0363  2A60               	goto	l5034
  3410     0364  3A01               	xorlw	1	; case 3
  3411     0365  1903               	skipnz
  3412     0366  2A98               	goto	l5052
  3413     0367  3A0B               	xorlw	11	; case 8
  3414     0368  1903               	skipnz
  3415     0369  2AB7               	goto	l5054
  3416     036A  3A01               	xorlw	1	; case 9
  3417     036B  1903               	skipnz
  3418     036C  2AC4               	goto	l5056
  3419     036D  3A18               	xorlw	24	; case 17
  3420     036E  1903               	skipnz
  3421     036F  2B2B               	goto	l5084
  3422     0370  3A03               	xorlw	3	; case 18
  3423     0371  1903               	skipnz
  3424     0372  2B3E               	goto	l5086
  3425     0373  2B74               	goto	l5096
  3426     0374                     l5096:
  3427     0374  3080               	movlw	128
  3428     0375  1683               	bsf	3,5	;RP0=1, select bank1
  3429     0376  1303               	bcf	3,6	;RP1=0, select bank1
  3430     0377  00D6               	movwf	main@reset_flag^(0+128)
  3431     0378  2866               	goto	l4884
  3432     0379  120A  118A  280C   	ljmp	start
  3433     037C                     __end_of_main:
  3434                           
  3435                           	psect	text1
  3436     0B81                     __ptext1:	
  3437 ;; *************** function _view_log *****************
  3438 ;; Defined at:
  3439 ;;		line 326 in file "car_black_box.c"
  3440 ;; Parameters:    Size  Location     Type
  3441 ;;  key             1    wreg     unsigned char 
  3442 ;;  reset_index     1   10[BANK0 ] unsigned char 
  3443 ;; Auto vars:     Size  Location     Type
  3444 ;;  key             1   27[BANK0 ] unsigned char 
  3445 ;;  i               2   28[BANK0 ] int 
  3446 ;;  log            11   13[BANK0 ] unsigned char [11]
  3447 ;;  position        2   24[BANK0 ] int 
  3448 ;;  add             1   26[BANK0 ] unsigned char 
  3449 ;; Return value:  Size  Location     Type
  3450 ;;                  1    wreg      void 
  3451 ;; Registers used:
  3452 ;;		wreg, fsr0l, fsr0h, status,2, status,0, btemp+1, pclath, cstack
  3453 ;; Tracked objects:
  3454 ;;		On entry : 0/0
  3455 ;;		On exit  : 0/0
  3456 ;;		Unchanged: 0/0
  3457 ;; Data sizes:     COMMON   BANK0   BANK1   BANK3   BANK2
  3458 ;;      Params:         0       1       0       0       0
  3459 ;;      Locals:         0      17       0       0       0
  3460 ;;      Temps:          0       2       0       0       0
  3461 ;;      Totals:         0      20       0       0       0
  3462 ;;Total ram usage:       20 bytes
  3463 ;; Hardware stack levels used: 1
  3464 ;; Hardware stack levels required when called: 5
  3465 ;; This function calls:
  3466 ;;		___bmul
  3467 ;;		_clcd_print
  3468 ;;		_clcd_putch
  3469 ;;		_eeprom_at24c04_random_read
  3470 ;; This function is called by:
  3471 ;;		_main
  3472 ;; This function uses a non-reentrant model
  3473 ;;
  3474                           
  3475     0B81                     _view_log:	
  3476                           ;psect for function _view_log
  3477                           
  3478                           
  3479                           ;incstack = 0
  3480                           ; Regs used in _view_log: [wreg-fsr0h+status,2+status,0+btemp+1+pclath+cstack]
  3481                           ;view_log@key stored from wreg
  3482     0B81  1283               	bcf	3,5	;RP0=0, select bank0
  3483     0B82  1303               	bcf	3,6	;RP1=0, select bank0
  3484     0B83  00E0               	movwf	view_log@key
  3485     0B84                     l4570:
  3486                           
  3487                           ;car_black_box.c: 326: void view_log(unsigned char key, char reset_index);car_black_box.
      +                          c: 327: {;car_black_box.c: 328:     static int index;;car_black_box.c: 329:     char log
      +                          [11];;car_black_box.c: 330:     log[10] = 0;
  3488     0B84  01DC               	clrf	view_log@log+10
  3489     0B85                     l4572:
  3490                           
  3491                           ;car_black_box.c: 331:     int position;;car_black_box.c: 332:     unsigned char add;;ca
      +                          r_black_box.c: 336:     if (event_count == -1)
  3492     0B85  0A66               	incf	_event_count,w
  3493     0B86  1D03               	skipz
  3494     0B87  2B8C               	goto	u4371
  3495     0B88  0A67               	incf	_event_count+1,w
  3496     0B89  1D03               	btfss	3,2
  3497     0B8A  2B8C               	goto	u4371
  3498     0B8B  2B8D               	goto	u4370
  3499     0B8C                     u4371:
  3500     0B8C  2BA4               	goto	l4576
  3501     0B8D                     u4370:
  3502     0B8D                     l4574:
  3503                           
  3504                           ;car_black_box.c: 337:     {;car_black_box.c: 338:         clcd_print("                "
      +                          , (0x80 + 0));
  3505     0B8D  3025               	movlw	low ((STR_43+1)| (0+32768))
  3506     0B8E  00F6               	movwf	clcd_print@str
  3507     0B8F  3087               	movlw	high ((STR_43+1)| (0+32768))
  3508     0B90  00F7               	movwf	clcd_print@str+1
  3509     0B91  3080               	movlw	128
  3510     0B92  00F8               	movwf	clcd_print@addr
  3511     0B93  160A  118A  23A2  120A  158A  	fcall	_clcd_print
  3512                           
  3513                           ;car_black_box.c: 339:         clcd_print("    No logs     ", (0xC0 + 0));
  3514     0B98  3048               	movlw	low (STR_29| (0+32768))
  3515     0B99  00F6               	movwf	clcd_print@str
  3516     0B9A  3087               	movlw	high (STR_29| (0+32768))
  3517     0B9B  00F7               	movwf	clcd_print@str+1
  3518     0B9C  30C0               	movlw	192
  3519     0B9D  00F8               	movwf	clcd_print@addr
  3520     0B9E  160A  118A  23A2  120A  158A  	fcall	_clcd_print
  3521                           
  3522                           ;car_black_box.c: 340:     }
  3523     0BA3  2CC0               	goto	l409
  3524     0BA4                     l4576:
  3525                           
  3526                           ;car_black_box.c: 342:     {;car_black_box.c: 343:         if (reset_index == 0x20)
  3527     0BA4  3020               	movlw	32
  3528     0BA5  064F               	xorwf	view_log@reset_index,w
  3529     0BA6  1D03               	btfss	3,2
  3530     0BA7  2BA9               	goto	u4381
  3531     0BA8  2BAA               	goto	u4380
  3532     0BA9                     u4381:
  3533     0BA9  2BAC               	goto	l4580
  3534     0BAA                     u4380:
  3535     0BAA                     l4578:
  3536                           
  3537                           ;car_black_box.c: 344:         {;car_black_box.c: 345:             index = 0;
  3538     0BAA  01B1               	clrf	view_log@index
  3539     0BAB  01B2               	clrf	view_log@index+1
  3540     0BAC                     l4580:
  3541                           
  3542                           ;car_black_box.c: 350:         if (key == 0x37 && index < event_count)
  3543     0BAC  3037               	movlw	55
  3544     0BAD  0660               	xorwf	view_log@key,w
  3545     0BAE  1D03               	btfss	3,2
  3546     0BAF  2BB1               	goto	u4391
  3547     0BB0  2BB2               	goto	u4390
  3548     0BB1                     u4391:
  3549     0BB1  2BD4               	goto	l4588
  3550     0BB2                     u4390:
  3551     0BB2                     l4582:
  3552     0BB2  0832               	movf	view_log@index+1,w
  3553     0BB3  3A80               	xorlw	128
  3554     0BB4  00D0               	movwf	??_view_log
  3555     0BB5  0867               	movf	_event_count+1,w
  3556     0BB6  3A80               	xorlw	128
  3557     0BB7  0250               	subwf	??_view_log,w
  3558     0BB8  1D03               	skipz
  3559     0BB9  2BBC               	goto	u4405
  3560     0BBA  0866               	movf	_event_count,w
  3561     0BBB  0231               	subwf	view_log@index,w
  3562     0BBC                     u4405:
  3563     0BBC  1803               	skipnc
  3564     0BBD  2BBF               	goto	u4401
  3565     0BBE  2BC0               	goto	u4400
  3566     0BBF                     u4401:
  3567     0BBF  2BD4               	goto	l4588
  3568     0BC0                     u4400:
  3569     0BC0                     l4584:
  3570                           
  3571                           ;car_black_box.c: 351:         {;car_black_box.c: 352:             index++;
  3572     0BC0  3001               	movlw	1
  3573     0BC1  1283               	bcf	3,5	;RP0=0, select bank0
  3574     0BC2  1303               	bcf	3,6	;RP1=0, select bank0
  3575     0BC3  07B1               	addwf	view_log@index,f
  3576     0BC4  1803               	skipnc
  3577     0BC5  0AB2               	incf	view_log@index+1,f
  3578     0BC6  3000               	movlw	0
  3579     0BC7  07B2               	addwf	view_log@index+1,f
  3580     0BC8                     l4586:
  3581                           
  3582                           ;car_black_box.c: 353:             clcd_print("                ", (0xC0 + 0));
  3583     0BC8  3025               	movlw	low ((STR_43+1)| (0+32768))
  3584     0BC9  00F6               	movwf	clcd_print@str
  3585     0BCA  3087               	movlw	high ((STR_43+1)| (0+32768))
  3586     0BCB  00F7               	movwf	clcd_print@str+1
  3587     0BCC  30C0               	movlw	192
  3588     0BCD  00F8               	movwf	clcd_print@addr
  3589     0BCE  160A  118A  23A2  120A  158A  	fcall	_clcd_print
  3590                           
  3591                           ;car_black_box.c: 354:         }
  3592     0BD3  2BFC               	goto	l4596
  3593     0BD4                     l4588:
  3594     0BD4  302F               	movlw	47
  3595     0BD5  1283               	bcf	3,5	;RP0=0, select bank0
  3596     0BD6  1303               	bcf	3,6	;RP1=0, select bank0
  3597     0BD7  0660               	xorwf	view_log@key,w
  3598     0BD8  1D03               	btfss	3,2
  3599     0BD9  2BDB               	goto	u4411
  3600     0BDA  2BDC               	goto	u4410
  3601     0BDB                     u4411:
  3602     0BDB  2BFC               	goto	l4596
  3603     0BDC                     u4410:
  3604     0BDC                     l4590:
  3605     0BDC  0832               	movf	view_log@index+1,w
  3606     0BDD  3A80               	xorlw	128
  3607     0BDE  00FF               	movwf	btemp+1
  3608     0BDF  3080               	movlw	128
  3609     0BE0  027F               	subwf	btemp+1,w
  3610     0BE1  1D03               	skipz
  3611     0BE2  2BE5               	goto	u4425
  3612     0BE3  3001               	movlw	1
  3613     0BE4  0231               	subwf	view_log@index,w
  3614     0BE5                     u4425:
  3615     0BE5  1C03               	skipc
  3616     0BE6  2BE8               	goto	u4421
  3617     0BE7  2BE9               	goto	u4420
  3618     0BE8                     u4421:
  3619     0BE8  2BFC               	goto	l4596
  3620     0BE9                     u4420:
  3621     0BE9                     l4592:
  3622                           
  3623                           ;car_black_box.c: 356:         {;car_black_box.c: 357:             index--;
  3624     0BE9  30FF               	movlw	255
  3625     0BEA  1283               	bcf	3,5	;RP0=0, select bank0
  3626     0BEB  1303               	bcf	3,6	;RP1=0, select bank0
  3627     0BEC  07B1               	addwf	view_log@index,f
  3628     0BED  1803               	skipnc
  3629     0BEE  0AB2               	incf	view_log@index+1,f
  3630     0BEF  30FF               	movlw	255
  3631     0BF0  07B2               	addwf	view_log@index+1,f
  3632     0BF1                     l4594:
  3633                           
  3634                           ;car_black_box.c: 358:             clcd_print("                ", (0xC0 + 0));
  3635     0BF1  3025               	movlw	low ((STR_43+1)| (0+32768))
  3636     0BF2  00F6               	movwf	clcd_print@str
  3637     0BF3  3087               	movlw	high ((STR_43+1)| (0+32768))
  3638     0BF4  00F7               	movwf	clcd_print@str+1
  3639     0BF5  30C0               	movlw	192
  3640     0BF6  00F8               	movwf	clcd_print@addr
  3641     0BF7  160A  118A  23A2  120A  158A  	fcall	_clcd_print
  3642     0BFC                     l4596:
  3643                           
  3644                           ;car_black_box.c: 363:         position = index;
  3645     0BFC  1283               	bcf	3,5	;RP0=0, select bank0
  3646     0BFD  1303               	bcf	3,6	;RP1=0, select bank0
  3647     0BFE  0832               	movf	view_log@index+1,w
  3648     0BFF  00DE               	movwf	view_log@position+1
  3649     0C00  0831               	movf	view_log@index,w
  3650     0C01  00DD               	movwf	view_log@position
  3651     0C02                     l4598:
  3652                           
  3653                           ;car_black_box.c: 368:         for (int i = 0; i < 10; i++)
  3654     0C02  01E1               	clrf	view_log@i
  3655     0C03  01E2               	clrf	view_log@i+1
  3656     0C04                     l4604:
  3657                           
  3658                           ;car_black_box.c: 369:         {;car_black_box.c: 371:             add = position * 10 +
      +                           5 + i;
  3659     0C04  300A               	movlw	10
  3660     0C05  00F2               	movwf	___bmul@multiplicand
  3661     0C06  1283               	bcf	3,5	;RP0=0, select bank0
  3662     0C07  1303               	bcf	3,6	;RP1=0, select bank0
  3663     0C08  085D               	movf	view_log@position,w
  3664     0C09  160A  118A  21EB  120A  158A  	fcall	___bmul
  3665     0C0E  1283               	bcf	3,5	;RP0=0, select bank0
  3666     0C0F  1303               	bcf	3,6	;RP1=0, select bank0
  3667     0C10  0761               	addwf	view_log@i,w
  3668     0C11  3E05               	addlw	5
  3669     0C12  00DF               	movwf	view_log@add
  3670     0C13                     l4606:
  3671                           
  3672                           ;car_black_box.c: 372:             log[i] = eeprom_at24c04_random_read(add);
  3673     0C13  0861               	movf	view_log@i,w
  3674     0C14  3E52               	addlw	(low (view_log@log| 0))& (0+255)
  3675     0C15  0084               	movwf	4
  3676     0C16  085F               	movf	view_log@add,w
  3677     0C17  160A  118A  234A  120A  158A  	fcall	_eeprom_at24c04_random_read
  3678     0C1C  1383               	bcf	3,7	;select IRP bank0
  3679     0C1D  0080               	movwf	0
  3680     0C1E                     l4608:
  3681                           
  3682                           ;car_black_box.c: 373:         }
  3683     0C1E  3001               	movlw	1
  3684     0C1F  1283               	bcf	3,5	;RP0=0, select bank0
  3685     0C20  1303               	bcf	3,6	;RP1=0, select bank0
  3686     0C21  07E1               	addwf	view_log@i,f
  3687     0C22  1803               	skipnc
  3688     0C23  0AE2               	incf	view_log@i+1,f
  3689     0C24  3000               	movlw	0
  3690     0C25  07E2               	addwf	view_log@i+1,f
  3691     0C26                     l4610:
  3692     0C26  0862               	movf	view_log@i+1,w
  3693     0C27  3A80               	xorlw	128
  3694     0C28  00FF               	movwf	btemp+1
  3695     0C29  3080               	movlw	128
  3696     0C2A  027F               	subwf	btemp+1,w
  3697     0C2B  1D03               	skipz
  3698     0C2C  2C2F               	goto	u4435
  3699     0C2D  300A               	movlw	10
  3700     0C2E  0261               	subwf	view_log@i,w
  3701     0C2F                     u4435:
  3702     0C2F  1C03               	skipc
  3703     0C30  2C32               	goto	u4431
  3704     0C31  2C33               	goto	u4430
  3705     0C32                     u4431:
  3706     0C32  2C04               	goto	l4604
  3707     0C33                     u4430:
  3708     0C33                     l4612:
  3709                           
  3710                           ;car_black_box.c: 379:         clcd_putch(index + '0', (0xC0 + 0));
  3711     0C33  30C0               	movlw	192
  3712     0C34  1283               	bcf	3,5	;RP0=0, select bank0
  3713     0C35  1303               	bcf	3,6	;RP1=0, select bank0
  3714     0C36  00CD               	movwf	clcd_putch@addr
  3715     0C37  0831               	movf	view_log@index,w
  3716     0C38  3E30               	addlw	48
  3717     0C39  160A  118A  21D6  120A  158A  	fcall	_clcd_putch
  3718                           
  3719                           ;car_black_box.c: 382:         clcd_putch(log[0], (0xC0 + 2));
  3720     0C3E  30C2               	movlw	194
  3721     0C3F  1283               	bcf	3,5	;RP0=0, select bank0
  3722     0C40  1303               	bcf	3,6	;RP1=0, select bank0
  3723     0C41  00CD               	movwf	clcd_putch@addr
  3724     0C42  0852               	movf	view_log@log,w
  3725     0C43  160A  118A  21D6  120A  158A  	fcall	_clcd_putch
  3726                           
  3727                           ;car_black_box.c: 383:         clcd_putch(log[1], (0xC0 + 3));
  3728     0C48  30C3               	movlw	195
  3729     0C49  1283               	bcf	3,5	;RP0=0, select bank0
  3730     0C4A  1303               	bcf	3,6	;RP1=0, select bank0
  3731     0C4B  00CD               	movwf	clcd_putch@addr
  3732     0C4C  0853               	movf	view_log@log+1,w
  3733     0C4D  160A  118A  21D6  120A  158A  	fcall	_clcd_putch
  3734                           
  3735                           ;car_black_box.c: 384:         clcd_putch(':', (0xC0 + 4));
  3736     0C52  30C4               	movlw	196
  3737     0C53  1283               	bcf	3,5	;RP0=0, select bank0
  3738     0C54  1303               	bcf	3,6	;RP1=0, select bank0
  3739     0C55  00CD               	movwf	clcd_putch@addr
  3740     0C56  303A               	movlw	58
  3741     0C57  160A  118A  21D6  120A  158A  	fcall	_clcd_putch
  3742                           
  3743                           ;car_black_box.c: 387:         clcd_putch(log[2], (0xC0 + 5));
  3744     0C5C  30C5               	movlw	197
  3745     0C5D  1283               	bcf	3,5	;RP0=0, select bank0
  3746     0C5E  1303               	bcf	3,6	;RP1=0, select bank0
  3747     0C5F  00CD               	movwf	clcd_putch@addr
  3748     0C60  0854               	movf	view_log@log+2,w
  3749     0C61  160A  118A  21D6  120A  158A  	fcall	_clcd_putch
  3750                           
  3751                           ;car_black_box.c: 388:         clcd_putch(log[3], (0xC0 + 6));
  3752     0C66  30C6               	movlw	198
  3753     0C67  1283               	bcf	3,5	;RP0=0, select bank0
  3754     0C68  1303               	bcf	3,6	;RP1=0, select bank0
  3755     0C69  00CD               	movwf	clcd_putch@addr
  3756     0C6A  0855               	movf	view_log@log+3,w
  3757     0C6B  160A  118A  21D6  120A  158A  	fcall	_clcd_putch
  3758                           
  3759                           ;car_black_box.c: 389:         clcd_putch(':', (0xC0 + 7));
  3760     0C70  30C7               	movlw	199
  3761     0C71  1283               	bcf	3,5	;RP0=0, select bank0
  3762     0C72  1303               	bcf	3,6	;RP1=0, select bank0
  3763     0C73  00CD               	movwf	clcd_putch@addr
  3764     0C74  303A               	movlw	58
  3765     0C75  160A  118A  21D6  120A  158A  	fcall	_clcd_putch
  3766                           
  3767                           ;car_black_box.c: 392:         clcd_putch(log[4], (0xC0 + 8));
  3768     0C7A  30C8               	movlw	200
  3769     0C7B  1283               	bcf	3,5	;RP0=0, select bank0
  3770     0C7C  1303               	bcf	3,6	;RP1=0, select bank0
  3771     0C7D  00CD               	movwf	clcd_putch@addr
  3772     0C7E  0856               	movf	view_log@log+4,w
  3773     0C7F  160A  118A  21D6  120A  158A  	fcall	_clcd_putch
  3774                           
  3775                           ;car_black_box.c: 393:         clcd_putch(log[5], (0xC0 + 9));
  3776     0C84  30C9               	movlw	201
  3777     0C85  1283               	bcf	3,5	;RP0=0, select bank0
  3778     0C86  1303               	bcf	3,6	;RP1=0, select bank0
  3779     0C87  00CD               	movwf	clcd_putch@addr
  3780     0C88  0857               	movf	view_log@log+5,w
  3781     0C89  160A  118A  21D6  120A  158A  	fcall	_clcd_putch
  3782                           
  3783                           ;car_black_box.c: 396:         clcd_putch(log[6], (0xC0 + 11));
  3784     0C8E  30CB               	movlw	203
  3785     0C8F  1283               	bcf	3,5	;RP0=0, select bank0
  3786     0C90  1303               	bcf	3,6	;RP1=0, select bank0
  3787     0C91  00CD               	movwf	clcd_putch@addr
  3788     0C92  0858               	movf	view_log@log+6,w
  3789     0C93  160A  118A  21D6  120A  158A  	fcall	_clcd_putch
  3790                           
  3791                           ;car_black_box.c: 397:         clcd_putch(log[7], (0xC0 + 12));
  3792     0C98  30CC               	movlw	204
  3793     0C99  1283               	bcf	3,5	;RP0=0, select bank0
  3794     0C9A  1303               	bcf	3,6	;RP1=0, select bank0
  3795     0C9B  00CD               	movwf	clcd_putch@addr
  3796     0C9C  0859               	movf	view_log@log+7,w
  3797     0C9D  160A  118A  21D6  120A  158A  	fcall	_clcd_putch
  3798                           
  3799                           ;car_black_box.c: 400:         clcd_putch(log[8], (0xC0 + 14));
  3800     0CA2  30CE               	movlw	206
  3801     0CA3  1283               	bcf	3,5	;RP0=0, select bank0
  3802     0CA4  1303               	bcf	3,6	;RP1=0, select bank0
  3803     0CA5  00CD               	movwf	clcd_putch@addr
  3804     0CA6  085A               	movf	view_log@log+8,w
  3805     0CA7  160A  118A  21D6  120A  158A  	fcall	_clcd_putch
  3806                           
  3807                           ;car_black_box.c: 401:         clcd_putch(log[9], (0xC0 + 15));
  3808     0CAC  30CF               	movlw	207
  3809     0CAD  1283               	bcf	3,5	;RP0=0, select bank0
  3810     0CAE  1303               	bcf	3,6	;RP1=0, select bank0
  3811     0CAF  00CD               	movwf	clcd_putch@addr
  3812     0CB0  085B               	movf	view_log@log+9,w
  3813     0CB1  160A  118A  21D6  120A  158A  	fcall	_clcd_putch
  3814     0CB6                     l4614:
  3815                           
  3816                           ;car_black_box.c: 403:         _delay((unsigned long)((500)*(20000000/4000000.0)));
  3817     0CB6  3004               	movlw	4
  3818     0CB7  1283               	bcf	3,5	;RP0=0, select bank0
  3819     0CB8  1303               	bcf	3,6	;RP1=0, select bank0
  3820     0CB9  00D1               	movwf	??_view_log+1
  3821     0CBA  303D               	movlw	61
  3822     0CBB  00D0               	movwf	??_view_log
  3823     0CBC                     u4987:
  3824     0CBC  0BD0               	decfsz	??_view_log,f
  3825     0CBD  2CBC               	goto	u4987
  3826     0CBE  0BD1               	decfsz	??_view_log+1,f
  3827     0CBF  2CBC               	goto	u4987
  3828     0CC0                     l409:
  3829     0CC0  0008               	return
  3830     0CC1                     __end_of_view_log:
  3831                           
  3832                           	psect	text2
  3833     125F                     __ptext2:	
  3834 ;; *************** function _strcpy *****************
  3835 ;; Defined at:
  3836 ;;		line 3 in file "C:\Program Files\Microchip\xc8\v2.46\pic\sources\c99\common\strcpy.c"
  3837 ;; Parameters:    Size  Location     Type
  3838 ;;  dest            1    wreg     PTR unsigned char 
  3839 ;;		 -> main@event(3), 
  3840 ;;  src             2    2[COMMON] PTR const unsigned char 
  3841 ;;		 -> STR_8(3), STR_6(3), STR_5(3), STR_4(3), 
  3842 ;;		 -> STR_3(3), STR_2(3), STR_1(3), 
  3843 ;; Auto vars:     Size  Location     Type
  3844 ;;  dest            1    7[COMMON] PTR unsigned char 
  3845 ;;		 -> main@event(3), 
  3846 ;;  d               1    6[COMMON] PTR unsigned char 
  3847 ;;		 -> main@event(3), 
  3848 ;; Return value:  Size  Location     Type
  3849 ;;                  1    wreg      PTR unsigned char 
  3850 ;; Registers used:
  3851 ;;		wreg, fsr0l, fsr0h, status,2, status,0, btemp+1, pclath
  3852 ;; Tracked objects:
  3853 ;;		On entry : 0/0
  3854 ;;		On exit  : 0/0
  3855 ;;		Unchanged: 0/0
  3856 ;; Data sizes:     COMMON   BANK0   BANK1   BANK3   BANK2
  3857 ;;      Params:         2       0       0       0       0
  3858 ;;      Locals:         2       0       0       0       0
  3859 ;;      Temps:          2       0       0       0       0
  3860 ;;      Totals:         6       0       0       0       0
  3861 ;;Total ram usage:        6 bytes
  3862 ;; Hardware stack levels used: 2
  3863 ;; Hardware stack levels required when called: 1
  3864 ;; This function calls:
  3865 ;;		Nothing
  3866 ;; This function is called by:
  3867 ;;		_main
  3868 ;; This function uses a non-reentrant model
  3869 ;;
  3870                           
  3871     125F                     _strcpy:	
  3872                           ;psect for function _strcpy
  3873                           
  3874                           
  3875                           ;incstack = 0
  3876                           ; Regs used in _strcpy: [wreg-fsr0h+status,2+status,0+btemp+1+pclath]
  3877                           ;strcpy@dest stored from wreg
  3878     125F  00F7               	movwf	strcpy@dest
  3879     1260                     l4320:
  3880     1260  0877               	movf	strcpy@dest,w
  3881     1261  00F6               	movwf	strcpy@d
  3882     1262                     l4322:
  3883     1262  0873               	movf	strcpy@src+1,w
  3884     1263  00F5               	movwf	??_strcpy+1
  3885     1264  0872               	movf	strcpy@src,w
  3886     1265  00F4               	movwf	??_strcpy
  3887     1266  0AF2               	incf	strcpy@src,f
  3888     1267  1903               	skipnz
  3889     1268  0AF3               	incf	strcpy@src+1,f
  3890     1269  0875               	movf	??_strcpy+1,w
  3891     126A  1283               	bcf	3,5	;RP0=0, select bank0
  3892     126B  1303               	bcf	3,6	;RP1=0, select bank0
  3893     126C  00FF               	movwf	btemp+1
  3894     126D  0874               	movf	??_strcpy,w
  3895     126E  0084               	movwf	4
  3896     126F  160A  118A  2000  160A  118A  	fcall	stringtab
  3897     1274  00FF               	movwf	btemp+1
  3898     1275  0876               	movf	strcpy@d,w
  3899     1276  0084               	movwf	4
  3900     1277  3001               	movlw	1
  3901     1278  07F6               	addwf	strcpy@d,f
  3902     1279  087F               	movf	btemp+1,w
  3903     127A  1383               	bcf	3,7	;select IRP bank0
  3904     127B  0080               	movwf	0
  3905     127C  0800               	movf	0,w
  3906     127D  1D03               	btfss	3,2
  3907     127E  2A80               	goto	u4141
  3908     127F  2A81               	goto	u4140
  3909     1280                     u4141:
  3910     1280  2A62               	goto	l4322
  3911     1281                     u4140:
  3912     1281                     l1099:
  3913     1281  0008               	return
  3914     1282                     __end_of_strcpy:
  3915                           
  3916                           	psect	text3
  3917     09DC                     __ptext3:	
  3918 ;; *************** function _read_digital_keypad *****************
  3919 ;; Defined at:
  3920 ;;		line 10 in file "digital_keypad.c"
  3921 ;; Parameters:    Size  Location     Type
  3922 ;;		None
  3923 ;; Auto vars:     Size  Location     Type
  3924 ;;  key             1    2[COMMON] unsigned char 
  3925 ;; Return value:  Size  Location     Type
  3926 ;;                  1    wreg      unsigned char 
  3927 ;; Registers used:
  3928 ;;		wreg, status,2, status,0, btemp+1
  3929 ;; Tracked objects:
  3930 ;;		On entry : 0/0
  3931 ;;		On exit  : 0/0
  3932 ;;		Unchanged: 0/0
  3933 ;; Data sizes:     COMMON   BANK0   BANK1   BANK3   BANK2
  3934 ;;      Params:         0       0       0       0       0
  3935 ;;      Locals:         1       0       0       0       0
  3936 ;;      Temps:          0       0       0       0       0
  3937 ;;      Totals:         1       0       0       0       0
  3938 ;;Total ram usage:        1 bytes
  3939 ;; Hardware stack levels used: 1
  3940 ;; Hardware stack levels required when called: 1
  3941 ;; This function calls:
  3942 ;;		Nothing
  3943 ;; This function is called by:
  3944 ;;		_main
  3945 ;; This function uses a non-reentrant model
  3946 ;;
  3947                           
  3948     09DC                     _read_digital_keypad:	
  3949                           ;psect for function _read_digital_keypad
  3950                           
  3951     09DC                     l4264:	
  3952                           ;incstack = 0
  3953                           ; Regs used in _read_digital_keypad: [wreg+status,2+status,0+btemp+1]
  3954                           
  3955                           
  3956                           ;digital_keypad.c: 12:     static char once;;digital_keypad.c: 13:     static int long_p
      +                          ressed;;digital_keypad.c: 14:     static unsigned char pre_key;;digital_keypad.c: 15:   
      +                            unsigned char key = PORTB & 0x3F;
  3957     09DC  1283               	bcf	3,5	;RP0=0, select bank0
  3958     09DD  1303               	bcf	3,6	;RP1=0, select bank0
  3959     09DE  0806               	movf	6,w	;volatile
  3960     09DF  393F               	andlw	63
  3961     09E0  00F2               	movwf	read_digital_keypad@key
  3962     09E1                     l4266:
  3963                           
  3964                           ;digital_keypad.c: 18:     if (key != 0x3F && once == 0)
  3965     09E1  303F               	movlw	63
  3966     09E2  0672               	xorwf	read_digital_keypad@key,w
  3967     09E3  1903               	btfsc	3,2
  3968     09E4  29E6               	goto	u4011
  3969     09E5  29E7               	goto	u4010
  3970     09E6                     u4011:
  3971     09E6  29F3               	goto	l4276
  3972     09E7                     u4010:
  3973     09E7                     l4268:
  3974     09E7  087B               	movf	read_digital_keypad@once,w
  3975     09E8  1D03               	btfss	3,2
  3976     09E9  29EB               	goto	u4021
  3977     09EA  29EC               	goto	u4020
  3978     09EB                     u4021:
  3979     09EB  29F3               	goto	l4276
  3980     09EC                     u4020:
  3981     09EC                     l4270:
  3982                           
  3983                           ;digital_keypad.c: 19:     {;digital_keypad.c: 20:         once = 1;
  3984     09EC  01FB               	clrf	read_digital_keypad@once
  3985     09ED  0AFB               	incf	read_digital_keypad@once,f
  3986     09EE                     l4272:
  3987                           
  3988                           ;digital_keypad.c: 21:         long_pressed = 0;
  3989     09EE  01B5               	clrf	read_digital_keypad@long_pressed
  3990     09EF  01B6               	clrf	read_digital_keypad@long_pressed+1
  3991     09F0                     l4274:
  3992                           
  3993                           ;digital_keypad.c: 22:         pre_key = key;
  3994     09F0  0872               	movf	read_digital_keypad@key,w
  3995     09F1  00FA               	movwf	read_digital_keypad@pre_key
  3996                           
  3997                           ;digital_keypad.c: 23:     }
  3998     09F2  2A0E               	goto	l4288
  3999     09F3                     l4276:
  4000     09F3  303F               	movlw	63
  4001     09F4  0672               	xorwf	read_digital_keypad@key,w
  4002     09F5  1D03               	btfss	3,2
  4003     09F6  29F8               	goto	u4031
  4004     09F7  29F9               	goto	u4030
  4005     09F8                     u4031:
  4006     09F8  2A0E               	goto	l4288
  4007     09F9                     u4030:
  4008     09F9                     l4278:
  4009     09F9  037B               	decf	read_digital_keypad@once,w
  4010     09FA  1D03               	btfss	3,2
  4011     09FB  29FD               	goto	u4041
  4012     09FC  29FE               	goto	u4040
  4013     09FD                     u4041:
  4014     09FD  2A0E               	goto	l4288
  4015     09FE                     u4040:
  4016     09FE                     l4280:
  4017                           
  4018                           ;digital_keypad.c: 25:     {;digital_keypad.c: 26:         once = 0;
  4019     09FE  01FB               	clrf	read_digital_keypad@once
  4020     09FF                     l4282:
  4021                           
  4022                           ;digital_keypad.c: 28:         if (long_pressed < 15)
  4023     09FF  0836               	movf	read_digital_keypad@long_pressed+1,w
  4024     0A00  3A80               	xorlw	128
  4025     0A01  00FF               	movwf	btemp+1
  4026     0A02  3080               	movlw	128
  4027     0A03  027F               	subwf	btemp+1,w
  4028     0A04  1D03               	skipz
  4029     0A05  2A08               	goto	u4055
  4030     0A06  300F               	movlw	15
  4031     0A07  0235               	subwf	read_digital_keypad@long_pressed,w
  4032     0A08                     u4055:
  4033     0A08  1803               	skipnc
  4034     0A09  2A0B               	goto	u4051
  4035     0A0A  2A0C               	goto	u4050
  4036     0A0B                     u4051:
  4037     0A0B  2A0E               	goto	l4288
  4038     0A0C                     u4050:
  4039     0A0C                     l4284:
  4040                           
  4041                           ;digital_keypad.c: 29:         {;digital_keypad.c: 30:             return pre_key;
  4042     0A0C  087A               	movf	read_digital_keypad@pre_key,w
  4043     0A0D  2A64               	goto	l195
  4044     0A0E                     l4288:
  4045                           
  4046                           ;digital_keypad.c: 36:     if (once == 1 && long_pressed < 16)
  4047     0A0E  037B               	decf	read_digital_keypad@once,w
  4048     0A0F  1D03               	btfss	3,2
  4049     0A10  2A12               	goto	u4061
  4050     0A11  2A13               	goto	u4060
  4051     0A12                     u4061:
  4052     0A12  2A2B               	goto	l4294
  4053     0A13                     u4060:
  4054     0A13                     l4290:
  4055     0A13  1283               	bcf	3,5	;RP0=0, select bank0
  4056     0A14  1303               	bcf	3,6	;RP1=0, select bank0
  4057     0A15  0836               	movf	read_digital_keypad@long_pressed+1,w
  4058     0A16  3A80               	xorlw	128
  4059     0A17  00FF               	movwf	btemp+1
  4060     0A18  3080               	movlw	128
  4061     0A19  027F               	subwf	btemp+1,w
  4062     0A1A  1D03               	skipz
  4063     0A1B  2A1E               	goto	u4075
  4064     0A1C  3010               	movlw	16
  4065     0A1D  0235               	subwf	read_digital_keypad@long_pressed,w
  4066     0A1E                     u4075:
  4067     0A1E  1803               	skipnc
  4068     0A1F  2A21               	goto	u4071
  4069     0A20  2A22               	goto	u4070
  4070     0A21                     u4071:
  4071     0A21  2A2B               	goto	l4294
  4072     0A22                     u4070:
  4073     0A22                     l4292:
  4074                           
  4075                           ;digital_keypad.c: 37:     {;digital_keypad.c: 38:         long_pressed++;
  4076     0A22  3001               	movlw	1
  4077     0A23  1283               	bcf	3,5	;RP0=0, select bank0
  4078     0A24  1303               	bcf	3,6	;RP1=0, select bank0
  4079     0A25  07B5               	addwf	read_digital_keypad@long_pressed,f
  4080     0A26  1803               	skipnc
  4081     0A27  0AB6               	incf	read_digital_keypad@long_pressed+1,f
  4082     0A28  3000               	movlw	0
  4083     0A29  07B6               	addwf	read_digital_keypad@long_pressed+1,f
  4084                           
  4085                           ;digital_keypad.c: 39:     }
  4086     0A2A  2A63               	goto	l4316
  4087     0A2B                     l4294:
  4088     0A2B  037B               	decf	read_digital_keypad@once,w
  4089     0A2C  1D03               	btfss	3,2
  4090     0A2D  2A2F               	goto	u4081
  4091     0A2E  2A30               	goto	u4080
  4092     0A2F                     u4081:
  4093     0A2F  2A47               	goto	l4306
  4094     0A30                     u4080:
  4095     0A30                     l4296:
  4096     0A30  3010               	movlw	16
  4097     0A31  1283               	bcf	3,5	;RP0=0, select bank0
  4098     0A32  1303               	bcf	3,6	;RP1=0, select bank0
  4099     0A33  0635               	xorwf	read_digital_keypad@long_pressed,w
  4100     0A34  0436               	iorwf	read_digital_keypad@long_pressed+1,w
  4101     0A35  1D03               	btfss	3,2
  4102     0A36  2A38               	goto	u4091
  4103     0A37  2A39               	goto	u4090
  4104     0A38                     u4091:
  4105     0A38  2A47               	goto	l4306
  4106     0A39                     u4090:
  4107     0A39                     l4298:
  4108     0A39  3037               	movlw	55
  4109     0A3A  0672               	xorwf	read_digital_keypad@key,w
  4110     0A3B  1D03               	btfss	3,2
  4111     0A3C  2A3E               	goto	u4101
  4112     0A3D  2A3F               	goto	u4100
  4113     0A3E                     u4101:
  4114     0A3E  2A47               	goto	l4306
  4115     0A3F                     u4100:
  4116     0A3F                     l4300:
  4117                           
  4118                           ;digital_keypad.c: 42:     {;digital_keypad.c: 43:         long_pressed++;
  4119     0A3F  3001               	movlw	1
  4120     0A40  07B5               	addwf	read_digital_keypad@long_pressed,f
  4121     0A41  1803               	skipnc
  4122     0A42  0AB6               	incf	read_digital_keypad@long_pressed+1,f
  4123     0A43  3000               	movlw	0
  4124     0A44  07B6               	addwf	read_digital_keypad@long_pressed+1,f
  4125                           
  4126                           ;digital_keypad.c: 44:         return 0x80;
  4127     0A45  3080               	movlw	128
  4128     0A46  2A64               	goto	l195
  4129     0A47                     l4306:
  4130     0A47  037B               	decf	read_digital_keypad@once,w
  4131     0A48  1D03               	btfss	3,2
  4132     0A49  2A4B               	goto	u4111
  4133     0A4A  2A4C               	goto	u4110
  4134     0A4B                     u4111:
  4135     0A4B  2A63               	goto	l4316
  4136     0A4C                     u4110:
  4137     0A4C                     l4308:
  4138     0A4C  3010               	movlw	16
  4139     0A4D  1283               	bcf	3,5	;RP0=0, select bank0
  4140     0A4E  1303               	bcf	3,6	;RP1=0, select bank0
  4141     0A4F  0635               	xorwf	read_digital_keypad@long_pressed,w
  4142     0A50  0436               	iorwf	read_digital_keypad@long_pressed+1,w
  4143     0A51  1D03               	btfss	3,2
  4144     0A52  2A54               	goto	u4121
  4145     0A53  2A55               	goto	u4120
  4146     0A54                     u4121:
  4147     0A54  2A63               	goto	l4316
  4148     0A55                     u4120:
  4149     0A55                     l4310:
  4150     0A55  302F               	movlw	47
  4151     0A56  0672               	xorwf	read_digital_keypad@key,w
  4152     0A57  1D03               	btfss	3,2
  4153     0A58  2A5A               	goto	u4131
  4154     0A59  2A5B               	goto	u4130
  4155     0A5A                     u4131:
  4156     0A5A  2A63               	goto	l4316
  4157     0A5B                     u4130:
  4158     0A5B                     l4312:
  4159                           
  4160                           ;digital_keypad.c: 48:     {;digital_keypad.c: 49:         long_pressed++;
  4161     0A5B  3001               	movlw	1
  4162     0A5C  07B5               	addwf	read_digital_keypad@long_pressed,f
  4163     0A5D  1803               	skipnc
  4164     0A5E  0AB6               	incf	read_digital_keypad@long_pressed+1,f
  4165     0A5F  3000               	movlw	0
  4166     0A60  07B6               	addwf	read_digital_keypad@long_pressed+1,f
  4167                           
  4168                           ;digital_keypad.c: 50:         return 0x90;
  4169     0A61  3090               	movlw	144
  4170     0A62  2A64               	goto	l195
  4171     0A63                     l4316:
  4172                           
  4173                           ;digital_keypad.c: 53:     return 0x3F;
  4174     0A63  303F               	movlw	63
  4175     0A64                     l195:
  4176     0A64  0008               	return
  4177     0A65                     __end_of_read_digital_keypad:
  4178                           
  4179                           	psect	text4
  4180     119E                     __ptext4:	
  4181 ;; *************** function _read_adc *****************
  4182 ;; Defined at:
  4183 ;;		line 12 in file "adc.c"
  4184 ;; Parameters:    Size  Location     Type
  4185 ;;		None
  4186 ;; Auto vars:     Size  Location     Type
  4187 ;;  adc_reg_val     2    4[COMMON] unsigned short 
  4188 ;; Return value:  Size  Location     Type
  4189 ;;                  2    2[COMMON] unsigned short 
  4190 ;; Registers used:
  4191 ;;		wreg
  4192 ;; Tracked objects:
  4193 ;;		On entry : 0/0
  4194 ;;		On exit  : 0/0
  4195 ;;		Unchanged: 0/0
  4196 ;; Data sizes:     COMMON   BANK0   BANK1   BANK3   BANK2
  4197 ;;      Params:         2       0       0       0       0
  4198 ;;      Locals:         2       0       0       0       0
  4199 ;;      Temps:          0       0       0       0       0
  4200 ;;      Totals:         4       0       0       0       0
  4201 ;;Total ram usage:        4 bytes
  4202 ;; Hardware stack levels used: 1
  4203 ;; Hardware stack levels required when called: 1
  4204 ;; This function calls:
  4205 ;;		Nothing
  4206 ;; This function is called by:
  4207 ;;		_main
  4208 ;; This function uses a non-reentrant model
  4209 ;;
  4210                           
  4211     119E                     _read_adc:	
  4212                           ;psect for function _read_adc
  4213                           
  4214     119E                     l4258:	
  4215                           ;incstack = 0
  4216                           ; Regs used in _read_adc: [wreg]
  4217                           
  4218                           
  4219                           ;adc.c: 14:     unsigned short adc_reg_val;;adc.c: 17:     GO = 1;
  4220     119E  1283               	bcf	3,5	;RP0=0, select bank0
  4221     119F  1303               	bcf	3,6	;RP1=0, select bank0
  4222     11A0  151F               	bsf	31,2	;volatile
  4223     11A1                     l140:	
  4224                           ;adc.c: 20:     while (nDONE);
  4225                           
  4226     11A1  191F               	btfsc	31,2	;volatile
  4227     11A2  29A4               	goto	u4001
  4228     11A3  29A5               	goto	u4000
  4229     11A4                     u4001:
  4230     11A4  29A1               	goto	l140
  4231     11A5                     u4000:
  4232     11A5                     l4260:
  4233                           
  4234                           ;adc.c: 23:     adc_reg_val = (ADRESH << 8) | ADRESL;
  4235     11A5  081E               	movf	30,w	;volatile
  4236     11A6  00F5               	movwf	read_adc@adc_reg_val+1
  4237     11A7  1683               	bsf	3,5	;RP0=1, select bank1
  4238     11A8  1303               	bcf	3,6	;RP1=0, select bank1
  4239     11A9  081E               	movf	30,w	;volatile
  4240     11AA  00F4               	movwf	read_adc@adc_reg_val
  4241                           
  4242                           ;adc.c: 25:     return adc_reg_val;
  4243     11AB  0875               	movf	read_adc@adc_reg_val+1,w
  4244     11AC  00F3               	movwf	?_read_adc+1
  4245     11AD  0874               	movf	read_adc@adc_reg_val,w
  4246     11AE  00F2               	movwf	?_read_adc
  4247     11AF                     l143:
  4248     11AF  0008               	return
  4249     11B0                     __end_of_read_adc:
  4250                           
  4251                           	psect	text5
  4252     0646                     __ptext5:	
  4253 ;; *************** function _login_menu *****************
  4254 ;; Defined at:
  4255 ;;		line 264 in file "car_black_box.c"
  4256 ;; Parameters:    Size  Location     Type
  4257 ;;  key             1    wreg     unsigned char 
  4258 ;;  reset_flag      1   10[BANK0 ] unsigned char 
  4259 ;; Auto vars:     Size  Location     Type
  4260 ;;  key             1   13[BANK0 ] unsigned char 
  4261 ;; Return value:  Size  Location     Type
  4262 ;;                  1    wreg      unsigned char 
  4263 ;; Registers used:
  4264 ;;		wreg, fsr0l, fsr0h, status,2, status,0, btemp+1, pclath, cstack
  4265 ;; Tracked objects:
  4266 ;;		On entry : 0/0
  4267 ;;		On exit  : 0/0
  4268 ;;		Unchanged: 0/0
  4269 ;; Data sizes:     COMMON   BANK0   BANK1   BANK3   BANK2
  4270 ;;      Params:         0       1       0       0       0
  4271 ;;      Locals:         0       1       0       0       0
  4272 ;;      Temps:          0       2       0       0       0
  4273 ;;      Totals:         0       4       0       0       0
  4274 ;;Total ram usage:        4 bytes
  4275 ;; Hardware stack levels used: 1
  4276 ;; Hardware stack levels required when called: 3
  4277 ;; This function calls:
  4278 ;;		_clcd_print
  4279 ;;		_clcd_putch
  4280 ;;		_clear_screen
  4281 ;; This function is called by:
  4282 ;;		_main
  4283 ;; This function uses a non-reentrant model
  4284 ;;
  4285                           
  4286     0646                     _login_menu:	
  4287                           ;psect for function _login_menu
  4288                           
  4289                           
  4290                           ;incstack = 0
  4291                           ; Regs used in _login_menu: [wreg-fsr0h+status,2+status,0+btemp+1+pclath+cstack]
  4292                           ;login_menu@key stored from wreg
  4293     0646  1283               	bcf	3,5	;RP0=0, select bank0
  4294     0647  1303               	bcf	3,6	;RP1=0, select bank0
  4295     0648  00D2               	movwf	login_menu@key
  4296     0649                     l4518:
  4297                           
  4298                           ;car_black_box.c: 264: unsigned char login_menu(unsigned char key, unsigned char reset_f
      +                          lag);car_black_box.c: 265: {;car_black_box.c: 266:     static char menu_pos;;car_black_b
      +                          ox.c: 270:     if (return_time == 0)
  4299     0649  086B               	movf	_return_time,w
  4300     064A  1D03               	btfss	3,2
  4301     064B  2E4D               	goto	u4291
  4302     064C  2E4E               	goto	u4290
  4303     064D                     u4291:
  4304     064D  2E50               	goto	l4524
  4305     064E                     u4290:
  4306     064E                     l4520:
  4307                           
  4308                           ;car_black_box.c: 271:     {;car_black_box.c: 272:         return 0x0A;
  4309     064E  300A               	movlw	10
  4310     064F  2EFE               	goto	l389
  4311     0650                     l4524:
  4312                           
  4313                           ;car_black_box.c: 277:     if (reset_flag == 0x70)
  4314     0650  3070               	movlw	112
  4315     0651  064F               	xorwf	login_menu@reset_flag,w
  4316     0652  1D03               	btfss	3,2
  4317     0653  2E55               	goto	u4301
  4318     0654  2E56               	goto	u4300
  4319     0655                     u4301:
  4320     0655  2E5E               	goto	l4532
  4321     0656                     u4300:
  4322     0656                     l4526:
  4323                           
  4324                           ;car_black_box.c: 278:     {;car_black_box.c: 279:         return_time = 15;
  4325     0656  300F               	movlw	15
  4326     0657  00EB               	movwf	_return_time
  4327     0658                     l4528:
  4328                           
  4329                           ;car_black_box.c: 280:         menu_pos = 0;
  4330     0658  01BC               	clrf	login_menu@menu_pos
  4331     0659                     l4530:
  4332                           
  4333                           ;car_black_box.c: 281:         clear_screen();
  4334     0659  160A  118A  218D  120A  118A  	fcall	_clear_screen
  4335     065E                     l4532:
  4336                           
  4337                           ;car_black_box.c: 286:     if (key == 0x37 && menu_pos > 0)
  4338     065E  3037               	movlw	55
  4339     065F  1283               	bcf	3,5	;RP0=0, select bank0
  4340     0660  1303               	bcf	3,6	;RP1=0, select bank0
  4341     0661  0652               	xorwf	login_menu@key,w
  4342     0662  1D03               	btfss	3,2
  4343     0663  2E65               	goto	u4311
  4344     0664  2E66               	goto	u4310
  4345     0665                     u4311:
  4346     0665  2E75               	goto	l4542
  4347     0666                     u4310:
  4348     0666                     l4534:
  4349     0666  083C               	movf	login_menu@menu_pos,w
  4350     0667  1903               	btfsc	3,2
  4351     0668  2E6A               	goto	u4321
  4352     0669  2E6B               	goto	u4320
  4353     066A                     u4321:
  4354     066A  2E75               	goto	l4542
  4355     066B                     u4320:
  4356     066B                     l4536:
  4357                           
  4358                           ;car_black_box.c: 287:     {;car_black_box.c: 288:         return_time = 15;
  4359     066B  300F               	movlw	15
  4360     066C  00EB               	movwf	_return_time
  4361     066D                     l4538:
  4362                           
  4363                           ;car_black_box.c: 289:         menu_pos--;
  4364     066D  3001               	movlw	1
  4365     066E  02BC               	subwf	login_menu@menu_pos,f
  4366     066F                     l4540:
  4367                           
  4368                           ;car_black_box.c: 290:         clear_screen();
  4369     066F  160A  118A  218D  120A  118A  	fcall	_clear_screen
  4370                           
  4371                           ;car_black_box.c: 291:     }
  4372     0674  2E88               	goto	l4552
  4373     0675                     l4542:
  4374     0675  302F               	movlw	47
  4375     0676  0652               	xorwf	login_menu@key,w
  4376     0677  1D03               	btfss	3,2
  4377     0678  2E7A               	goto	u4331
  4378     0679  2E7B               	goto	u4330
  4379     067A                     u4331:
  4380     067A  2E88               	goto	l4552
  4381     067B                     u4330:
  4382     067B                     l4544:
  4383     067B  3004               	movlw	4
  4384     067C  023C               	subwf	login_menu@menu_pos,w
  4385     067D  1803               	skipnc
  4386     067E  2E80               	goto	u4341
  4387     067F  2E81               	goto	u4340
  4388     0680                     u4341:
  4389     0680  2E88               	goto	l4552
  4390     0681                     u4340:
  4391     0681                     l4546:
  4392                           
  4393                           ;car_black_box.c: 294:     {;car_black_box.c: 295:         return_time = 15;
  4394     0681  300F               	movlw	15
  4395     0682  00EB               	movwf	_return_time
  4396     0683                     l4548:
  4397                           
  4398                           ;car_black_box.c: 296:         menu_pos++;
  4399     0683  3001               	movlw	1
  4400     0684  00FF               	movwf	btemp+1
  4401     0685  087F               	movf	btemp+1,w
  4402     0686  07BC               	addwf	login_menu@menu_pos,f
  4403     0687  2E6F               	goto	l4540
  4404     0688                     l4552:
  4405                           
  4406                           ;car_black_box.c: 304:     if (menu_pos < 4)
  4407     0688  3004               	movlw	4
  4408     0689  1283               	bcf	3,5	;RP0=0, select bank0
  4409     068A  1303               	bcf	3,6	;RP1=0, select bank0
  4410     068B  023C               	subwf	login_menu@menu_pos,w
  4411     068C  1803               	skipnc
  4412     068D  2E8F               	goto	u4351
  4413     068E  2E90               	goto	u4350
  4414     068F                     u4351:
  4415     068F  2EC3               	goto	l4560
  4416     0690                     u4350:
  4417     0690                     l4554:
  4418                           
  4419                           ;car_black_box.c: 305:     {;car_black_box.c: 306:         clcd_putch('*', (0x80 + 0));
  4420     0690  3080               	movlw	128
  4421     0691  00CD               	movwf	clcd_putch@addr
  4422     0692  302A               	movlw	42
  4423     0693  160A  118A  21D6  120A  118A  	fcall	_clcd_putch
  4424     0698                     l4556:
  4425                           
  4426                           ;car_black_box.c: 307:         clcd_print(menu[menu_pos], (0x80 + 2));
  4427     0698  1283               	bcf	3,5	;RP0=0, select bank0
  4428     0699  1303               	bcf	3,6	;RP1=0, select bank0
  4429     069A  083C               	movf	login_menu@menu_pos,w
  4430     069B  00D0               	movwf	??_login_menu
  4431     069C  0750               	addwf	??_login_menu,w
  4432     069D  3EAC               	addlw	(low (_menu| 0))& (0+255)
  4433     069E  0084               	movwf	4
  4434     069F  1383               	bcf	3,7	;select IRP bank1
  4435     06A0  0800               	movf	0,w
  4436     06A1  00F6               	movwf	clcd_print@str
  4437     06A2  0A84               	incf	4,f
  4438     06A3  0800               	movf	0,w
  4439     06A4  0384               	decf	4,f
  4440     06A5  00F7               	movwf	clcd_print@str+1
  4441     06A6  3082               	movlw	130
  4442     06A7  00F8               	movwf	clcd_print@addr
  4443     06A8  160A  118A  23A2  120A  118A  	fcall	_clcd_print
  4444     06AD                     l4558:
  4445                           
  4446                           ;car_black_box.c: 308:         clcd_print(menu[menu_pos + 1], (0xC0 + 2));
  4447     06AD  1283               	bcf	3,5	;RP0=0, select bank0
  4448     06AE  1303               	bcf	3,6	;RP1=0, select bank0
  4449     06AF  083C               	movf	login_menu@menu_pos,w
  4450     06B0  00D0               	movwf	??_login_menu
  4451     06B1  0750               	addwf	??_login_menu,w
  4452     06B2  3EAE               	addlw	(low ((_menu| 0+2)))& (0+255)
  4453     06B3  0084               	movwf	4
  4454     06B4  1383               	bcf	3,7	;select IRP bank1
  4455     06B5  0800               	movf	0,w
  4456     06B6  00F6               	movwf	clcd_print@str
  4457     06B7  0A84               	incf	4,f
  4458     06B8  0800               	movf	0,w
  4459     06B9  0384               	decf	4,f
  4460     06BA  00F7               	movwf	clcd_print@str+1
  4461     06BB  30C2               	movlw	194
  4462     06BC  00F8               	movwf	clcd_print@addr
  4463     06BD  160A  118A  23A2  120A  118A  	fcall	_clcd_print
  4464                           
  4465                           ;car_black_box.c: 309:     }
  4466     06C2  2EFB               	goto	l4566
  4467     06C3                     l4560:
  4468     06C3  3004               	movlw	4
  4469     06C4  063C               	xorwf	login_menu@menu_pos,w
  4470     06C5  1D03               	btfss	3,2
  4471     06C6  2EC8               	goto	u4361
  4472     06C7  2EC9               	goto	u4360
  4473     06C8                     u4361:
  4474     06C8  2EFB               	goto	l4566
  4475     06C9                     u4360:
  4476     06C9                     l4562:
  4477                           
  4478                           ;car_black_box.c: 312:     {;car_black_box.c: 314:         clcd_print(menu[menu_pos - 1]
      +                          , (0x80 + 2));
  4479     06C9  083C               	movf	login_menu@menu_pos,w
  4480     06CA  00D0               	movwf	??_login_menu
  4481     06CB  0750               	addwf	??_login_menu,w
  4482     06CC  3EAA               	addlw	(low ((_menu| 0+254)))& (0+255)
  4483     06CD  0084               	movwf	4
  4484     06CE  1383               	bcf	3,7	;select IRP bank1
  4485     06CF  0800               	movf	0,w
  4486     06D0  00F6               	movwf	clcd_print@str
  4487     06D1  0A84               	incf	4,f
  4488     06D2  0800               	movf	0,w
  4489     06D3  0384               	decf	4,f
  4490     06D4  00F7               	movwf	clcd_print@str+1
  4491     06D5  3082               	movlw	130
  4492     06D6  00F8               	movwf	clcd_print@addr
  4493     06D7  160A  118A  23A2  120A  118A  	fcall	_clcd_print
  4494                           
  4495                           ;car_black_box.c: 315:         clcd_print(menu[menu_pos], (0xC0 + 2));
  4496     06DC  1283               	bcf	3,5	;RP0=0, select bank0
  4497     06DD  1303               	bcf	3,6	;RP1=0, select bank0
  4498     06DE  083C               	movf	login_menu@menu_pos,w
  4499     06DF  00D0               	movwf	??_login_menu
  4500     06E0  0750               	addwf	??_login_menu,w
  4501     06E1  3EAC               	addlw	(low (_menu| 0))& (0+255)
  4502     06E2  0084               	movwf	4
  4503     06E3  1383               	bcf	3,7	;select IRP bank1
  4504     06E4  0800               	movf	0,w
  4505     06E5  00F6               	movwf	clcd_print@str
  4506     06E6  0A84               	incf	4,f
  4507     06E7  0800               	movf	0,w
  4508     06E8  0384               	decf	4,f
  4509     06E9  00F7               	movwf	clcd_print@str+1
  4510     06EA  30C2               	movlw	194
  4511     06EB  00F8               	movwf	clcd_print@addr
  4512     06EC  160A  118A  23A2  120A  118A  	fcall	_clcd_print
  4513     06F1                     l4564:
  4514                           
  4515                           ;car_black_box.c: 316:         clcd_putch('*', (0xC0 + 0));
  4516     06F1  30C0               	movlw	192
  4517     06F2  1283               	bcf	3,5	;RP0=0, select bank0
  4518     06F3  1303               	bcf	3,6	;RP1=0, select bank0
  4519     06F4  00CD               	movwf	clcd_putch@addr
  4520     06F5  302A               	movlw	42
  4521     06F6  160A  118A  21D6  120A  118A  	fcall	_clcd_putch
  4522     06FB                     l4566:
  4523                           
  4524                           ;car_black_box.c: 319:     return menu_pos;
  4525     06FB  1283               	bcf	3,5	;RP0=0, select bank0
  4526     06FC  1303               	bcf	3,6	;RP1=0, select bank0
  4527     06FD  083C               	movf	login_menu@menu_pos,w
  4528     06FE                     l389:
  4529     06FE  0008               	return
  4530     06FF                     __end_of_login_menu:
  4531                           
  4532                           	psect	text6
  4533     0E5E                     __ptext6:	
  4534 ;; *************** function _login *****************
  4535 ;; Defined at:
  4536 ;;		line 145 in file "car_black_box.c"
  4537 ;; Parameters:    Size  Location     Type
  4538 ;;  key             1    wreg     unsigned char 
  4539 ;;  reset_flag      1   10[BANK0 ] unsigned char 
  4540 ;; Auto vars:     Size  Location     Type
  4541 ;;  key             1   20[BANK0 ] unsigned char 
  4542 ;;  j               2   21[BANK0 ] int 
  4543 ;;  spassword       4   16[BANK0 ] unsigned char [4]
  4544 ;; Return value:  Size  Location     Type
  4545 ;;                  1    wreg      unsigned char 
  4546 ;; Registers used:
  4547 ;;		wreg, fsr0l, fsr0h, status,2, status,0, btemp+1, pclath, cstack
  4548 ;; Tracked objects:
  4549 ;;		On entry : 0/0
  4550 ;;		On exit  : 0/0
  4551 ;;		Unchanged: 0/0
  4552 ;; Data sizes:     COMMON   BANK0   BANK1   BANK3   BANK2
  4553 ;;      Params:         0       1       0       0       0
  4554 ;;      Locals:         0       9       0       0       0
  4555 ;;      Temps:          0       3       0       0       0
  4556 ;;      Totals:         0      13       0       0       0
  4557 ;;Total ram usage:       13 bytes
  4558 ;; Hardware stack levels used: 1
  4559 ;; Hardware stack levels required when called: 5
  4560 ;; This function calls:
  4561 ;;		___lwdiv
  4562 ;;		___lwmod
  4563 ;;		_clcd_print
  4564 ;;		_clcd_putch
  4565 ;;		_clcd_write
  4566 ;;		_clear_screen
  4567 ;;		_eeprom_at24c04_random_read
  4568 ;;		_strncmp
  4569 ;; This function is called by:
  4570 ;;		_main
  4571 ;; This function uses a non-reentrant model
  4572 ;;
  4573                           
  4574     0E5E                     _login:	
  4575                           ;psect for function _login
  4576                           
  4577                           
  4578                           ;incstack = 0
  4579                           ; Regs used in _login: [wreg-fsr0h+status,2+status,0+btemp+1+pclath+cstack]
  4580                           ;login@key stored from wreg
  4581     0E5E  1283               	bcf	3,5	;RP0=0, select bank0
  4582     0E5F  1303               	bcf	3,6	;RP1=0, select bank0
  4583     0E60  00D9               	movwf	login@key
  4584     0E61                     l4402:
  4585                           
  4586                           ;car_black_box.c: 145: unsigned char login(unsigned char key, unsigned char reset_flag);
      +                          car_black_box.c: 146: {;car_black_box.c: 147:     static char npassword[4];;car_black_bo
      +                          x.c: 148:     char spassword[4];;car_black_box.c: 149:     static char i;;car_black_box.
      +                          c: 150:     static unsigned char attempts_rem = 3;;car_black_box.c: 153:     if (reset_f
      +                          lag == 0x60)
  4587     0E61  3060               	movlw	96
  4588     0E62  064F               	xorwf	login@reset_flag,w
  4589     0E63  1D03               	btfss	3,2
  4590     0E64  2E66               	goto	u4181
  4591     0E65  2E67               	goto	u4180
  4592     0E66                     u4181:
  4593     0E66  2E76               	goto	l4420
  4594     0E67                     u4180:
  4595     0E67                     l4404:
  4596                           
  4597                           ;car_black_box.c: 154:     {;car_black_box.c: 155:         attempts_rem = 3;
  4598     0E67  3003               	movlw	3
  4599     0E68  00EA               	movwf	login@attempts_rem
  4600     0E69                     l4406:
  4601                           
  4602                           ;car_black_box.c: 158:         npassword[0] = '\0';
  4603     0E69  1683               	bsf	3,5	;RP0=1, select bank1
  4604     0E6A  1303               	bcf	3,6	;RP1=0, select bank1
  4605     0E6B  01CD               	clrf	login@npassword^(0+128)
  4606     0E6C                     l4408:
  4607                           
  4608                           ;car_black_box.c: 159:         npassword[1] = '\0';
  4609     0E6C  01CE               	clrf	(login@npassword^(0+128)+1)
  4610     0E6D                     l4410:
  4611                           
  4612                           ;car_black_box.c: 160:         npassword[2] = '\0';
  4613     0E6D  01CF               	clrf	(login@npassword^(0+128)+2)
  4614     0E6E                     l4412:
  4615                           
  4616                           ;car_black_box.c: 161:         npassword[3] = '\0';
  4617     0E6E  01D0               	clrf	(login@npassword^(0+128)+3)
  4618     0E6F                     l4414:
  4619                           
  4620                           ;car_black_box.c: 163:         i = 0;
  4621     0E6F  1283               	bcf	3,5	;RP0=0, select bank0
  4622     0E70  1303               	bcf	3,6	;RP1=0, select bank0
  4623     0E71  01BD               	clrf	login@i
  4624     0E72                     l4416:
  4625                           
  4626                           ;car_black_box.c: 164:         key = 0xFF;
  4627     0E72  30FF               	movlw	255
  4628     0E73  00D9               	movwf	login@key
  4629     0E74                     l4418:
  4630                           
  4631                           ;car_black_box.c: 165:         return_time = 5;
  4632     0E74  3005               	movlw	5
  4633     0E75  00EB               	movwf	_return_time
  4634     0E76                     l4420:
  4635                           
  4636                           ;car_black_box.c: 170:     if (return_time == 0)
  4637     0E76  086B               	movf	_return_time,w
  4638     0E77  1D03               	btfss	3,2
  4639     0E78  2E7A               	goto	u4191
  4640     0E79  2E7B               	goto	u4190
  4641     0E7A                     u4191:
  4642     0E7A  2E7D               	goto	l4426
  4643     0E7B                     u4190:
  4644     0E7B                     l4422:
  4645                           
  4646                           ;car_black_box.c: 171:     {;car_black_box.c: 172:         return 0x0A;
  4647     0E7B  300A               	movlw	10
  4648     0E7C  2FFF               	goto	l370
  4649     0E7D                     l4426:
  4650                           
  4651                           ;car_black_box.c: 182:     _delay((unsigned long)((50)*(20000000/4000.0)));
  4652     0E7D  3002               	movlw	2
  4653     0E7E  1283               	bcf	3,5	;RP0=0, select bank0
  4654     0E7F  1303               	bcf	3,6	;RP1=0, select bank0
  4655     0E80  00D2               	movwf	??_login+2
  4656     0E81  3045               	movlw	69
  4657     0E82  00D1               	movwf	??_login+1
  4658     0E83  30A9               	movlw	169
  4659     0E84  00D0               	movwf	??_login
  4660     0E85                     u4997:
  4661     0E85  0BD0               	decfsz	??_login,f
  4662     0E86  2E85               	goto	u4997
  4663     0E87  0BD1               	decfsz	??_login+1,f
  4664     0E88  2E85               	goto	u4997
  4665     0E89  0BD2               	decfsz	??_login+2,f
  4666     0E8A  2E85               	goto	u4997
  4667     0E8B                     l4428:
  4668                           
  4669                           ;car_black_box.c: 184:     if (key == 0x37 && i < 4)
  4670     0E8B  3037               	movlw	55
  4671     0E8C  1283               	bcf	3,5	;RP0=0, select bank0
  4672     0E8D  1303               	bcf	3,6	;RP1=0, select bank0
  4673     0E8E  0659               	xorwf	login@key,w
  4674     0E8F  1D03               	btfss	3,2
  4675     0E90  2E92               	goto	u4201
  4676     0E91  2E93               	goto	u4200
  4677     0E92                     u4201:
  4678     0E92  2EB1               	goto	l4440
  4679     0E93                     u4200:
  4680     0E93                     l4430:
  4681     0E93  3004               	movlw	4
  4682     0E94  023D               	subwf	login@i,w
  4683     0E95  1803               	skipnc
  4684     0E96  2E98               	goto	u4211
  4685     0E97  2E99               	goto	u4210
  4686     0E98                     u4211:
  4687     0E98  2EB1               	goto	l4440
  4688     0E99                     u4210:
  4689     0E99                     l4432:
  4690                           
  4691                           ;car_black_box.c: 185:     {;car_black_box.c: 186:         npassword[i] = '1';
  4692     0E99  083D               	movf	login@i,w
  4693     0E9A  3ECD               	addlw	(low (login@npassword| 0))& (0+255)
  4694     0E9B  0084               	movwf	4
  4695     0E9C  3031               	movlw	49
  4696     0E9D  1383               	bcf	3,7	;select IRP bank1
  4697     0E9E  0080               	movwf	0
  4698     0E9F                     l4434:
  4699                           
  4700                           ;car_black_box.c: 187:         clcd_putch('*', (0xC0 + 6 + i));
  4701     0E9F  083D               	movf	login@i,w
  4702     0EA0  3EC6               	addlw	198
  4703     0EA1  00CD               	movwf	clcd_putch@addr
  4704     0EA2  302A               	movlw	42
  4705     0EA3  160A  118A  21D6  120A  158A  	fcall	_clcd_putch
  4706     0EA8                     l4436:
  4707                           
  4708                           ;car_black_box.c: 188:         i++;
  4709     0EA8  3001               	movlw	1
  4710     0EA9  00FF               	movwf	btemp+1
  4711     0EAA  087F               	movf	btemp+1,w
  4712     0EAB  1283               	bcf	3,5	;RP0=0, select bank0
  4713     0EAC  1303               	bcf	3,6	;RP1=0, select bank0
  4714     0EAD  07BD               	addwf	login@i,f
  4715     0EAE                     l4438:
  4716                           
  4717                           ;car_black_box.c: 189:         return_time = 5;
  4718     0EAE  3005               	movlw	5
  4719     0EAF  00EB               	movwf	_return_time
  4720                           
  4721                           ;car_black_box.c: 190:     }
  4722     0EB0  2ECD               	goto	l4452
  4723     0EB1                     l4440:
  4724     0EB1  302F               	movlw	47
  4725     0EB2  0659               	xorwf	login@key,w
  4726     0EB3  1D03               	btfss	3,2
  4727     0EB4  2EB6               	goto	u4221
  4728     0EB5  2EB7               	goto	u4220
  4729     0EB6                     u4221:
  4730     0EB6  2ECD               	goto	l4452
  4731     0EB7                     u4220:
  4732     0EB7                     l4442:
  4733     0EB7  3004               	movlw	4
  4734     0EB8  023D               	subwf	login@i,w
  4735     0EB9  1803               	skipnc
  4736     0EBA  2EBC               	goto	u4231
  4737     0EBB  2EBD               	goto	u4230
  4738     0EBC                     u4231:
  4739     0EBC  2ECD               	goto	l4452
  4740     0EBD                     u4230:
  4741     0EBD                     l4444:
  4742                           
  4743                           ;car_black_box.c: 192:     {;car_black_box.c: 193:         npassword[i] = '0';
  4744     0EBD  083D               	movf	login@i,w
  4745     0EBE  3ECD               	addlw	(low (login@npassword| 0))& (0+255)
  4746     0EBF  0084               	movwf	4
  4747     0EC0  3030               	movlw	48
  4748     0EC1  1383               	bcf	3,7	;select IRP bank1
  4749     0EC2  0080               	movwf	0
  4750     0EC3                     l4446:
  4751                           
  4752                           ;car_black_box.c: 194:         clcd_putch('*', (0xC0 + 6 + i));
  4753     0EC3  083D               	movf	login@i,w
  4754     0EC4  3EC6               	addlw	198
  4755     0EC5  00CD               	movwf	clcd_putch@addr
  4756     0EC6  302A               	movlw	42
  4757     0EC7  160A  118A  21D6  120A  158A  	fcall	_clcd_putch
  4758     0ECC  2EA8               	goto	l4436
  4759     0ECD                     l4452:
  4760                           
  4761                           ;car_black_box.c: 201:     if (i == 4)
  4762     0ECD  3004               	movlw	4
  4763     0ECE  063D               	xorwf	login@i,w
  4764     0ECF  1D03               	btfss	3,2
  4765     0ED0  2ED2               	goto	u4241
  4766     0ED1  2ED3               	goto	u4240
  4767     0ED2                     u4241:
  4768     0ED2  2FFE               	goto	l4514
  4769     0ED3                     u4240:
  4770     0ED3                     l4454:
  4771                           
  4772                           ;car_black_box.c: 202:     {;car_black_box.c: 204:         for (int j = 0; j < 4; j++)
  4773     0ED3  01DA               	clrf	login@j
  4774     0ED4  01DB               	clrf	login@j+1
  4775     0ED5                     l4460:
  4776                           
  4777                           ;car_black_box.c: 205:         {;car_black_box.c: 206:             spassword[j] = eeprom
      +                          _at24c04_random_read(j);
  4778     0ED5  1283               	bcf	3,5	;RP0=0, select bank0
  4779     0ED6  1303               	bcf	3,6	;RP1=0, select bank0
  4780     0ED7  085A               	movf	login@j,w
  4781     0ED8  3E55               	addlw	(low (login@spassword| 0))& (0+255)
  4782     0ED9  0084               	movwf	4
  4783     0EDA  085A               	movf	login@j,w
  4784     0EDB  160A  118A  234A  120A  158A  	fcall	_eeprom_at24c04_random_read
  4785     0EE0  1383               	bcf	3,7	;select IRP bank0
  4786     0EE1  0080               	movwf	0
  4787     0EE2                     l4462:
  4788                           
  4789                           ;car_black_box.c: 207:         }
  4790     0EE2  3001               	movlw	1
  4791     0EE3  1283               	bcf	3,5	;RP0=0, select bank0
  4792     0EE4  1303               	bcf	3,6	;RP1=0, select bank0
  4793     0EE5  07DA               	addwf	login@j,f
  4794     0EE6  1803               	skipnc
  4795     0EE7  0ADB               	incf	login@j+1,f
  4796     0EE8  3000               	movlw	0
  4797     0EE9  07DB               	addwf	login@j+1,f
  4798     0EEA                     l4464:
  4799     0EEA  085B               	movf	login@j+1,w
  4800     0EEB  3A80               	xorlw	128
  4801     0EEC  00FF               	movwf	btemp+1
  4802     0EED  3080               	movlw	128
  4803     0EEE  027F               	subwf	btemp+1,w
  4804     0EEF  1D03               	skipz
  4805     0EF0  2EF3               	goto	u4255
  4806     0EF1  3004               	movlw	4
  4807     0EF2  025A               	subwf	login@j,w
  4808     0EF3                     u4255:
  4809     0EF3  1C03               	skipc
  4810     0EF4  2EF6               	goto	u4251
  4811     0EF5  2EF7               	goto	u4250
  4812     0EF6                     u4251:
  4813     0EF6  2ED5               	goto	l4460
  4814     0EF7                     u4250:
  4815     0EF7                     l4466:
  4816                           
  4817                           ;car_black_box.c: 210:         if (strncmp(spassword, npassword, 4) == 0)
  4818     0EF7  30CD               	movlw	(low (login@npassword| 0))& (0+255)
  4819     0EF8  00F2               	movwf	strncmp@r
  4820     0EF9  3004               	movlw	4
  4821     0EFA  00F3               	movwf	strncmp@n
  4822     0EFB  3000               	movlw	0
  4823     0EFC  00F4               	movwf	strncmp@n+1
  4824     0EFD  3055               	movlw	(low (login@spassword| 0))& (0+255)
  4825     0EFE  160A  118A  25FB  120A  158A  	fcall	_strncmp
  4826     0F03  0872               	movf	?_strncmp,w
  4827     0F04  0473               	iorwf	?_strncmp+1,w
  4828     0F05  1D03               	btfss	3,2
  4829     0F06  2F08               	goto	u4261
  4830     0F07  2F09               	goto	u4260
  4831     0F08                     u4261:
  4832     0F08  2F0B               	goto	l4474
  4833     0F09                     u4260:
  4834     0F09                     l4468:
  4835                           
  4836                           ;car_black_box.c: 211:         {;car_black_box.c: 212:             return 0x0B;
  4837     0F09  300B               	movlw	11
  4838     0F0A  2FFF               	goto	l370
  4839     0F0B                     l4474:
  4840                           
  4841                           ;car_black_box.c: 215:         {;car_black_box.c: 216:             attempts_rem--;
  4842     0F0B  3001               	movlw	1
  4843     0F0C  1283               	bcf	3,5	;RP0=0, select bank0
  4844     0F0D  1303               	bcf	3,6	;RP1=0, select bank0
  4845     0F0E  02EA               	subwf	login@attempts_rem,f
  4846                           
  4847                           ;car_black_box.c: 218:             if (attempts_rem == 0)
  4848     0F0F  086A               	movf	login@attempts_rem,w
  4849     0F10  1D03               	btfss	3,2
  4850     0F11  2F13               	goto	u4271
  4851     0F12  2F14               	goto	u4270
  4852     0F13                     u4271:
  4853     0F13  2F9F               	goto	l4492
  4854     0F14                     u4270:
  4855     0F14                     l4476:
  4856                           
  4857                           ;car_black_box.c: 219:             {;car_black_box.c: 220:                 sec = 900;
  4858     0F14  3084               	movlw	132
  4859     0F15  00B3               	movwf	_sec
  4860     0F16  3003               	movlw	3
  4861     0F17  00B4               	movwf	_sec+1
  4862     0F18                     l4478:
  4863                           
  4864                           ;car_black_box.c: 222:                 clear_screen();
  4865     0F18  160A  118A  218D  120A  158A  	fcall	_clear_screen
  4866     0F1D                     l4480:
  4867                           
  4868                           ;car_black_box.c: 223:                 clcd_write(0x0C, 0);
  4869     0F1D  01F2               	clrf	clcd_write@mode
  4870     0F1E  300C               	movlw	12
  4871     0F1F  160A  118A  221E  120A  158A  	fcall	_clcd_write
  4872                           
  4873                           ;car_black_box.c: 224:                 _delay((unsigned long)((100)*(20000000/4000000.0)
      +                          ));
  4874     0F24  30A5               	movlw	165
  4875     0F25  1283               	bcf	3,5	;RP0=0, select bank0
  4876     0F26  1303               	bcf	3,6	;RP1=0, select bank0
  4877     0F27  00D0               	movwf	??_login
  4878     0F28                     u5007:
  4879     0F28  0BD0               	decfsz	??_login,f
  4880     0F29  2F28               	goto	u5007
  4881     0F2A  2F2B               	nop2
  4882     0F2B                     l4482:
  4883                           
  4884                           ;car_black_box.c: 225:                 clcd_print("You Are  Blocked", (0x80 + 0));
  4885     0F2B  309D               	movlw	low (STR_23| (0+32768))
  4886     0F2C  00F6               	movwf	clcd_print@str
  4887     0F2D  3087               	movlw	high (STR_23| (0+32768))
  4888     0F2E  00F7               	movwf	clcd_print@str+1
  4889     0F2F  3080               	movlw	128
  4890     0F30  00F8               	movwf	clcd_print@addr
  4891     0F31  160A  118A  23A2  120A  158A  	fcall	_clcd_print
  4892     0F36                     l4484:
  4893                           
  4894                           ;car_black_box.c: 226:                 clcd_print("Wait for...15min", (0xC0 + 0));
  4895     0F36  30D0               	movlw	low (STR_24| (0+32768))
  4896     0F37  00F6               	movwf	clcd_print@str
  4897     0F38  3087               	movlw	high (STR_24| (0+32768))
  4898     0F39  00F7               	movwf	clcd_print@str+1
  4899     0F3A  30C0               	movlw	192
  4900     0F3B  00F8               	movwf	clcd_print@addr
  4901     0F3C  160A  118A  23A2  120A  158A  	fcall	_clcd_print
  4902                           
  4903                           ;car_black_box.c: 228:                 while (sec)
  4904     0F41  2F94               	goto	l4488
  4905     0F42                     l4486:
  4906                           
  4907                           ;car_black_box.c: 229:                 {;car_black_box.c: 231:                     clcd_
      +                          putch(((sec / 60) / 10) + '0', (0xC0 + 11));
  4908     0F42  303C               	movlw	60
  4909     0F43  00F6               	movwf	___lwdiv@divisor
  4910     0F44  3000               	movlw	0
  4911     0F45  00F7               	movwf	___lwdiv@divisor+1
  4912     0F46  0834               	movf	_sec+1,w
  4913     0F47  00F9               	movwf	___lwdiv@dividend+1
  4914     0F48  0833               	movf	_sec,w
  4915     0F49  00F8               	movwf	___lwdiv@dividend
  4916     0F4A  160A  118A  2520  120A  158A  	fcall	___lwdiv
  4917     0F4F  0877               	movf	?___lwdiv+1,w
  4918     0F50  1283               	bcf	3,5	;RP0=0, select bank0
  4919     0F51  1303               	bcf	3,6	;RP1=0, select bank0
  4920     0F52  00D4               	movwf	_login$1111+1
  4921     0F53  0876               	movf	?___lwdiv,w
  4922     0F54  00D3               	movwf	_login$1111
  4923                           
  4924                           ;car_black_box.c: 229:                 {;car_black_box.c: 231:                     clcd_
      +                          putch(((sec / 60) / 10) + '0', (0xC0 + 11));
  4925     0F55  30CB               	movlw	203
  4926     0F56  00CD               	movwf	clcd_putch@addr
  4927     0F57  300A               	movlw	10
  4928     0F58  00F6               	movwf	___lwdiv@divisor
  4929     0F59  3000               	movlw	0
  4930     0F5A  00F7               	movwf	___lwdiv@divisor+1
  4931     0F5B  0854               	movf	_login$1111+1,w
  4932     0F5C  00F9               	movwf	___lwdiv@dividend+1
  4933     0F5D  0853               	movf	_login$1111,w
  4934     0F5E  00F8               	movwf	___lwdiv@dividend
  4935     0F5F  160A  118A  2520  120A  158A  	fcall	___lwdiv
  4936     0F64  0876               	movf	?___lwdiv,w
  4937     0F65  3E30               	addlw	48
  4938     0F66  160A  118A  21D6  120A  158A  	fcall	_clcd_putch
  4939                           
  4940                           ;car_black_box.c: 232:                     clcd_putch(((sec / 60) % 10) + '0', (0xC0 + 1
      +                          2));
  4941     0F6B  30CC               	movlw	204
  4942     0F6C  1283               	bcf	3,5	;RP0=0, select bank0
  4943     0F6D  1303               	bcf	3,6	;RP1=0, select bank0
  4944     0F6E  00CD               	movwf	clcd_putch@addr
  4945     0F6F  300A               	movlw	10
  4946     0F70  00C8               	movwf	___lwmod@divisor
  4947     0F71  3000               	movlw	0
  4948     0F72  00C9               	movwf	___lwmod@divisor+1
  4949     0F73  303C               	movlw	60
  4950     0F74  00F6               	movwf	___lwdiv@divisor
  4951     0F75  3000               	movlw	0
  4952     0F76  00F7               	movwf	___lwdiv@divisor+1
  4953     0F77  0834               	movf	_sec+1,w
  4954     0F78  00F9               	movwf	___lwdiv@dividend+1
  4955     0F79  0833               	movf	_sec,w
  4956     0F7A  00F8               	movwf	___lwdiv@dividend
  4957     0F7B  160A  118A  2520  120A  158A  	fcall	___lwdiv
  4958     0F80  0877               	movf	?___lwdiv+1,w
  4959     0F81  1283               	bcf	3,5	;RP0=0, select bank0
  4960     0F82  1303               	bcf	3,6	;RP1=0, select bank0
  4961     0F83  00CB               	movwf	___lwmod@dividend+1
  4962     0F84  0876               	movf	?___lwdiv,w
  4963     0F85  00CA               	movwf	___lwmod@dividend
  4964     0F86  160A  118A  24A5  120A  158A  	fcall	___lwmod
  4965     0F8B  1283               	bcf	3,5	;RP0=0, select bank0
  4966     0F8C  1303               	bcf	3,6	;RP1=0, select bank0
  4967     0F8D  0848               	movf	?___lwmod,w
  4968     0F8E  3E30               	addlw	48
  4969     0F8F  160A  118A  21D6  120A  158A  	fcall	_clcd_putch
  4970     0F94                     l4488:
  4971                           
  4972                           ;car_black_box.c: 228:                 while (sec)
  4973     0F94  1283               	bcf	3,5	;RP0=0, select bank0
  4974     0F95  1303               	bcf	3,6	;RP1=0, select bank0
  4975     0F96  0833               	movf	_sec,w
  4976     0F97  0434               	iorwf	_sec+1,w
  4977     0F98  1D03               	btfss	3,2
  4978     0F99  2F9B               	goto	u4281
  4979     0F9A  2F9C               	goto	u4280
  4980     0F9B                     u4281:
  4981     0F9B  2F42               	goto	l4486
  4982     0F9C                     u4280:
  4983     0F9C                     l4490:
  4984                           
  4985                           ;car_black_box.c: 234:                 attempts_rem = 3;
  4986     0F9C  3003               	movlw	3
  4987     0F9D  00EA               	movwf	login@attempts_rem
  4988                           
  4989                           ;car_black_box.c: 235:             }
  4990     0F9E  2FD4               	goto	l4500
  4991     0F9F                     l4492:
  4992                           
  4993                           ;car_black_box.c: 237:             {;car_black_box.c: 239:                 clear_screen(
      +                          );
  4994     0F9F  160A  118A  218D  120A  158A  	fcall	_clear_screen
  4995     0FA4                     l4494:
  4996                           
  4997                           ;car_black_box.c: 240:                 clcd_print(" Wrong Password ", (0x80 + 0));
  4998     0FA4  306A               	movlw	low (STR_25| (0+32768))
  4999     0FA5  00F6               	movwf	clcd_print@str
  5000     0FA6  3087               	movlw	high (STR_25| (0+32768))
  5001     0FA7  00F7               	movwf	clcd_print@str+1
  5002     0FA8  3080               	movlw	128
  5003     0FA9  00F8               	movwf	clcd_print@addr
  5004     0FAA  160A  118A  23A2  120A  158A  	fcall	_clcd_print
  5005     0FAF                     l4496:
  5006                           
  5007                           ;car_black_box.c: 241:                 clcd_putch(attempts_rem + '0', (0xC0 + 0));
  5008     0FAF  30C0               	movlw	192
  5009     0FB0  1283               	bcf	3,5	;RP0=0, select bank0
  5010     0FB1  1303               	bcf	3,6	;RP1=0, select bank0
  5011     0FB2  00CD               	movwf	clcd_putch@addr
  5012     0FB3  086A               	movf	login@attempts_rem,w
  5013     0FB4  3E30               	addlw	48
  5014     0FB5  160A  118A  21D6  120A  158A  	fcall	_clcd_putch
  5015                           
  5016                           ;car_black_box.c: 242:                 clcd_print(" Attempt Remain", (0xC0 + 1));
  5017     0FBA  3045               	movlw	low (STR_26| (0+32768))
  5018     0FBB  00F6               	movwf	clcd_print@str
  5019     0FBC  3088               	movlw	high (STR_26| (0+32768))
  5020     0FBD  00F7               	movwf	clcd_print@str+1
  5021     0FBE  30C1               	movlw	193
  5022     0FBF  00F8               	movwf	clcd_print@addr
  5023     0FC0  160A  118A  23A2  120A  158A  	fcall	_clcd_print
  5024     0FC5                     l4498:
  5025                           
  5026                           ;car_black_box.c: 243:                 _delay((unsigned long)((4000)*(20000000/4000.0)))
      +                          ;
  5027     0FC5  3066               	movlw	102
  5028     0FC6  1283               	bcf	3,5	;RP0=0, select bank0
  5029     0FC7  1303               	bcf	3,6	;RP1=0, select bank0
  5030     0FC8  00D2               	movwf	??_login+2
  5031     0FC9  3076               	movlw	118
  5032     0FCA  00D1               	movwf	??_login+1
  5033     0FCB  30C0               	movlw	192
  5034     0FCC  00D0               	movwf	??_login
  5035     0FCD                     u5017:
  5036     0FCD  0BD0               	decfsz	??_login,f
  5037     0FCE  2FCD               	goto	u5017
  5038     0FCF  0BD1               	decfsz	??_login+1,f
  5039     0FD0  2FCD               	goto	u5017
  5040     0FD1  0BD2               	decfsz	??_login+2,f
  5041     0FD2  2FCD               	goto	u5017
  5042     0FD3  0000               	nop
  5043     0FD4                     l4500:
  5044                           
  5045                           ;car_black_box.c: 247:             clear_screen();
  5046     0FD4  160A  118A  218D  120A  158A  	fcall	_clear_screen
  5047     0FD9                     l4502:
  5048                           
  5049                           ;car_black_box.c: 248:             clcd_print(" Enter Password ", (0x80 + 0));
  5050     0FD9  3014               	movlw	low (STR_9| (0+32768))
  5051     0FDA  00F6               	movwf	clcd_print@str
  5052     0FDB  3088               	movlw	high (STR_9| (0+32768))
  5053     0FDC  00F7               	movwf	clcd_print@str+1
  5054     0FDD  3080               	movlw	128
  5055     0FDE  00F8               	movwf	clcd_print@addr
  5056     0FDF  160A  118A  23A2  120A  158A  	fcall	_clcd_print
  5057     0FE4                     l4504:
  5058                           
  5059                           ;car_black_box.c: 249:             i = 0;
  5060     0FE4  1283               	bcf	3,5	;RP0=0, select bank0
  5061     0FE5  1303               	bcf	3,6	;RP1=0, select bank0
  5062     0FE6  01BD               	clrf	login@i
  5063     0FE7                     l4506:
  5064                           
  5065                           ;car_black_box.c: 250:             return_time = 5;
  5066     0FE7  3005               	movlw	5
  5067     0FE8  00EB               	movwf	_return_time
  5068     0FE9                     l4508:
  5069                           
  5070                           ;car_black_box.c: 251:             clcd_write(0xC6, 0);
  5071     0FE9  01F2               	clrf	clcd_write@mode
  5072     0FEA  30C6               	movlw	198
  5073     0FEB  160A  118A  221E  120A  158A  	fcall	_clcd_write
  5074     0FF0                     l4510:
  5075                           
  5076                           ;car_black_box.c: 252:             clcd_write(0x0F, 0);
  5077     0FF0  01F2               	clrf	clcd_write@mode
  5078     0FF1  300F               	movlw	15
  5079     0FF2  160A  118A  221E  120A  158A  	fcall	_clcd_write
  5080     0FF7                     l4512:
  5081                           
  5082                           ;car_black_box.c: 253:             _delay((unsigned long)((100)*(20000000/4000000.0)));
  5083     0FF7  30A5               	movlw	165
  5084     0FF8  1283               	bcf	3,5	;RP0=0, select bank0
  5085     0FF9  1303               	bcf	3,6	;RP1=0, select bank0
  5086     0FFA  00D0               	movwf	??_login
  5087     0FFB                     u5027:
  5088     0FFB  0BD0               	decfsz	??_login,f
  5089     0FFC  2FFB               	goto	u5027
  5090     0FFD  2FFE               	nop2
  5091     0FFE                     l4514:
  5092                           
  5093                           ;car_black_box.c: 257:     return 0xFF;
  5094     0FFE  30FF               	movlw	255
  5095     0FFF                     l370:
  5096     0FFF  0008               	return
  5097     1000                     __end_of_login:
  5098                           
  5099                           	psect	text7
  5100     118D                     __ptext7:	
  5101 ;; *************** function _clear_screen *****************
  5102 ;; Defined at:
  5103 ;;		line 134 in file "car_black_box.c"
  5104 ;; Parameters:    Size  Location     Type
  5105 ;;		None
  5106 ;; Auto vars:     Size  Location     Type
  5107 ;;		None
  5108 ;; Return value:  Size  Location     Type
  5109 ;;                  1    wreg      void 
  5110 ;; Registers used:
  5111 ;;		wreg, status,2, status,0, pclath, cstack
  5112 ;; Tracked objects:
  5113 ;;		On entry : 0/0
  5114 ;;		On exit  : 0/0
  5115 ;;		Unchanged: 0/0
  5116 ;; Data sizes:     COMMON   BANK0   BANK1   BANK3   BANK2
  5117 ;;      Params:         0       0       0       0       0
  5118 ;;      Locals:         0       0       0       0       0
  5119 ;;      Temps:          2       0       0       0       0
  5120 ;;      Totals:         2       0       0       0       0
  5121 ;;Total ram usage:        2 bytes
  5122 ;; Hardware stack levels used: 1
  5123 ;; Hardware stack levels required when called: 2
  5124 ;; This function calls:
  5125 ;;		_clcd_write
  5126 ;; This function is called by:
  5127 ;;		_main
  5128 ;;		_login
  5129 ;;		_login_menu
  5130 ;; This function uses a non-reentrant model
  5131 ;;
  5132                           
  5133     118D                     _clear_screen:	
  5134                           ;psect for function _clear_screen
  5135                           
  5136     118D                     l3988:	
  5137                           ;incstack = 0
  5138                           ; Regs used in _clear_screen: [wreg+status,2+status,0+pclath+cstack]
  5139                           
  5140                           
  5141                           ;car_black_box.c: 137:     clcd_write(0x01, 0);
  5142     118D  01F2               	clrf	clcd_write@mode
  5143     118E  3001               	movlw	1
  5144     118F  160A  118A  221E  160A  118A  	fcall	_clcd_write
  5145     1194                     l3990:
  5146                           
  5147                           ;car_black_box.c: 138:     _delay((unsigned long)((500)*(20000000/4000000.0)));
  5148     1194  3004               	movlw	4
  5149     1195  00F7               	movwf	??_clear_screen+1
  5150     1196  303D               	movlw	61
  5151     1197  00F6               	movwf	??_clear_screen
  5152     1198                     u5037:
  5153     1198  0BF6               	decfsz	??_clear_screen,f
  5154     1199  2998               	goto	u5037
  5155     119A  0BF7               	decfsz	??_clear_screen+1,f
  5156     119B  2998               	goto	u5037
  5157     119C  299D               	nop2
  5158     119D                     l359:
  5159     119D  0008               	return
  5160     119E                     __end_of_clear_screen:
  5161                           
  5162                           	psect	text8
  5163     174F                     __ptext8:	
  5164 ;; *************** function _log_car_event *****************
  5165 ;; Defined at:
  5166 ;;		line 115 in file "car_black_box.c"
  5167 ;; Parameters:    Size  Location     Type
  5168 ;;  event           2    1[BANK0 ] PTR unsigned char 
  5169 ;;		 -> STR_16(3), STR_15(3), STR_14(3), STR_11(3), 
  5170 ;;		 -> main@event(3), 
  5171 ;;  speed           1    3[BANK0 ] unsigned char 
  5172 ;; Auto vars:     Size  Location     Type
  5173 ;;		None
  5174 ;; Return value:  Size  Location     Type
  5175 ;;                  1    wreg      void 
  5176 ;; Registers used:
  5177 ;;		wreg, fsr0l, fsr0h, status,2, status,0, btemp+1, pclath, cstack
  5178 ;; Tracked objects:
  5179 ;;		On entry : 0/0
  5180 ;;		On exit  : 0/0
  5181 ;;		Unchanged: 0/0
  5182 ;; Data sizes:     COMMON   BANK0   BANK1   BANK3   BANK2
  5183 ;;      Params:         0       3       0       0       0
  5184 ;;      Locals:         0       0       0       0       0
  5185 ;;      Temps:          0       2       0       0       0
  5186 ;;      Totals:         0       5       0       0       0
  5187 ;;Total ram usage:        5 bytes
  5188 ;; Hardware stack levels used: 1
  5189 ;; Hardware stack levels required when called: 6
  5190 ;; This function calls:
  5191 ;;		___awdiv
  5192 ;;		___awmod
  5193 ;;		_get_time
  5194 ;;		_log_event
  5195 ;;		_strncpy
  5196 ;; This function is called by:
  5197 ;;		_main
  5198 ;; This function uses a non-reentrant model
  5199 ;;
  5200                           
  5201     174F                     _log_car_event:	
  5202                           ;psect for function _log_car_event
  5203                           
  5204     174F                     l4244:	
  5205                           ;incstack = 0
  5206                           ; Regs used in _log_car_event: [wreg-fsr0h+status,2+status,0+btemp+1+pclath+cstack]
  5207                           
  5208                           
  5209                           ;car_black_box.c: 115: void log_car_event(char event[], unsigned char speed);car_black_b
      +                          ox.c: 116: {;car_black_box.c: 118:     get_time();
  5210     174F  160A  118A  25AE  160A  118A  	fcall	_get_time
  5211     1754                     l4246:
  5212                           
  5213                           ;car_black_box.c: 120:     strncpy(log, time, 6);
  5214     1754  303E               	movlw	(low (_time| 0))& (0+255)
  5215     1755  00F2               	movwf	strncpy@s
  5216     1756  3000               	movlw	0
  5217     1757  00F3               	movwf	strncpy@s+1
  5218     1758  3006               	movlw	6
  5219     1759  00F4               	movwf	strncpy@n
  5220     175A  3000               	movlw	0
  5221     175B  00F5               	movwf	strncpy@n+1
  5222     175C  30B9               	movlw	(low (_log| 0))& (0+255)
  5223     175D  160A  118A  2566  160A  118A  	fcall	_strncpy
  5224     1762                     l4248:
  5225                           
  5226                           ;car_black_box.c: 121:     strncpy(&log[6], event, 2);
  5227     1762  1283               	bcf	3,5	;RP0=0, select bank0
  5228     1763  1303               	bcf	3,6	;RP1=0, select bank0
  5229     1764  0846               	movf	log_car_event@event,w
  5230     1765  00F2               	movwf	strncpy@s
  5231     1766  0847               	movf	log_car_event@event+1,w
  5232     1767  00F3               	movwf	strncpy@s+1
  5233     1768  3002               	movlw	2
  5234     1769  00F4               	movwf	strncpy@n
  5235     176A  3000               	movlw	0
  5236     176B  00F5               	movwf	strncpy@n+1
  5237     176C  30BF               	movlw	(low ((_log| 0+6)))& (0+255)
  5238     176D  160A  118A  2566  160A  118A  	fcall	_strncpy
  5239     1772                     l4250:
  5240                           
  5241                           ;car_black_box.c: 123:     log[8] = (speed / 10) + '0';
  5242     1772  300A               	movlw	10
  5243     1773  00F2               	movwf	___awdiv@divisor
  5244     1774  3000               	movlw	0
  5245     1775  00F3               	movwf	___awdiv@divisor+1
  5246     1776  1283               	bcf	3,5	;RP0=0, select bank0
  5247     1777  1303               	bcf	3,6	;RP1=0, select bank0
  5248     1778  0848               	movf	log_car_event@speed,w
  5249     1779  00C9               	movwf	??_log_car_event
  5250     177A  01CA               	clrf	??_log_car_event+1
  5251     177B  0849               	movf	??_log_car_event,w
  5252     177C  00F4               	movwf	___awdiv@dividend
  5253     177D  084A               	movf	??_log_car_event+1,w
  5254     177E  00F5               	movwf	___awdiv@dividend+1
  5255     177F  120A  158A  210D  160A  118A  	fcall	___awdiv
  5256     1784  0872               	movf	?___awdiv,w
  5257     1785  3E30               	addlw	48
  5258     1786  1683               	bsf	3,5	;RP0=1, select bank1
  5259     1787  1303               	bcf	3,6	;RP1=0, select bank1
  5260     1788  00C1               	movwf	(_log^(0+128)+8)
  5261     1789                     l4252:
  5262                           
  5263                           ;car_black_box.c: 124:     log[9] = (speed % 10) + '0';
  5264     1789  300A               	movlw	10
  5265     178A  00F2               	movwf	___awmod@divisor
  5266     178B  3000               	movlw	0
  5267     178C  00F3               	movwf	___awmod@divisor+1
  5268     178D  1283               	bcf	3,5	;RP0=0, select bank0
  5269     178E  1303               	bcf	3,6	;RP1=0, select bank0
  5270     178F  0848               	movf	log_car_event@speed,w
  5271     1790  00C9               	movwf	??_log_car_event
  5272     1791  01CA               	clrf	??_log_car_event+1
  5273     1792  0849               	movf	??_log_car_event,w
  5274     1793  00F4               	movwf	___awmod@dividend
  5275     1794  084A               	movf	??_log_car_event+1,w
  5276     1795  00F5               	movwf	___awmod@dividend+1
  5277     1796  160A  118A  27A7  160A  118A  	fcall	___awmod
  5278     179B  0872               	movf	?___awmod,w
  5279     179C  3E30               	addlw	48
  5280     179D  1683               	bsf	3,5	;RP0=1, select bank1
  5281     179E  1303               	bcf	3,6	;RP1=0, select bank1
  5282     179F  00C2               	movwf	(_log^(0+128)+9)
  5283     17A0                     l4254:
  5284                           
  5285                           ;car_black_box.c: 125:     log[10] = '\0';
  5286     17A0  01C3               	clrf	(_log^(0+128)+10)
  5287     17A1                     l4256:
  5288                           
  5289                           ;car_black_box.c: 127:     log_event();
  5290     17A1  160A  118A  24E1  160A  118A  	fcall	_log_event
  5291     17A6                     l356:
  5292     17A6  0008               	return
  5293     17A7                     __end_of_log_car_event:
  5294                           
  5295                           	psect	text9
  5296     14E1                     __ptext9:	
  5297 ;; *************** function _log_event *****************
  5298 ;; Defined at:
  5299 ;;		line 92 in file "car_black_box.c"
  5300 ;; Parameters:    Size  Location     Type
  5301 ;;		None
  5302 ;; Auto vars:     Size  Location     Type
  5303 ;;  addr            1    0[BANK0 ] unsigned char 
  5304 ;; Return value:  Size  Location     Type
  5305 ;;                  1    wreg      void 
  5306 ;; Registers used:
  5307 ;;		wreg, fsr0l, fsr0h, status,2, status,0, btemp+1, pclath, cstack
  5308 ;; Tracked objects:
  5309 ;;		On entry : 0/0
  5310 ;;		On exit  : 0/0
  5311 ;;		Unchanged: 0/0
  5312 ;; Data sizes:     COMMON   BANK0   BANK1   BANK3   BANK2
  5313 ;;      Params:         0       0       0       0       0
  5314 ;;      Locals:         0       1       0       0       0
  5315 ;;      Temps:          0       0       0       0       0
  5316 ;;      Totals:         0       1       0       0       0
  5317 ;;Total ram usage:        1 bytes
  5318 ;; Hardware stack levels used: 1
  5319 ;; Hardware stack levels required when called: 5
  5320 ;; This function calls:
  5321 ;;		___bmul
  5322 ;;		_eeprom_at24c04_str_write
  5323 ;; This function is called by:
  5324 ;;		_log_car_event
  5325 ;; This function uses a non-reentrant model
  5326 ;;
  5327                           
  5328     14E1                     _log_event:	
  5329                           ;psect for function _log_event
  5330                           
  5331     14E1                     l4022:	
  5332                           ;incstack = 0
  5333                           ; Regs used in _log_event: [wreg-fsr0h+status,2+status,0+btemp+1+pclath+cstack]
  5334                           
  5335                           
  5336                           ;car_black_box.c: 95:     pos++;
  5337     14E1  3001               	movlw	1
  5338     14E2  1283               	bcf	3,5	;RP0=0, select bank0
  5339     14E3  1303               	bcf	3,6	;RP1=0, select bank0
  5340     14E4  07E8               	addwf	_pos,f
  5341     14E5  1803               	skipnc
  5342     14E6  0AE9               	incf	_pos+1,f
  5343     14E7  3000               	movlw	0
  5344     14E8  07E9               	addwf	_pos+1,f
  5345     14E9                     l4024:
  5346                           
  5347                           ;car_black_box.c: 96:     if (pos == 10)
  5348     14E9  300A               	movlw	10
  5349     14EA  0668               	xorwf	_pos,w
  5350     14EB  0469               	iorwf	_pos+1,w
  5351     14EC  1D03               	btfss	3,2
  5352     14ED  2CEF               	goto	u3531
  5353     14EE  2CF0               	goto	u3530
  5354     14EF                     u3531:
  5355     14EF  2CF2               	goto	l4028
  5356     14F0                     u3530:
  5357     14F0                     l4026:
  5358                           
  5359                           ;car_black_box.c: 97:     {;car_black_box.c: 98:         pos = 0;
  5360     14F0  01E8               	clrf	_pos
  5361     14F1  01E9               	clrf	_pos+1
  5362     14F2                     l4028:
  5363                           
  5364                           ;car_black_box.c: 100:     addr = pos * 10 + 5;
  5365     14F2  300A               	movlw	10
  5366     14F3  00F2               	movwf	___bmul@multiplicand
  5367     14F4  0868               	movf	_pos,w
  5368     14F5  160A  118A  21EB  160A  118A  	fcall	___bmul
  5369     14FA  3E05               	addlw	5
  5370     14FB  1283               	bcf	3,5	;RP0=0, select bank0
  5371     14FC  1303               	bcf	3,6	;RP1=0, select bank0
  5372     14FD  00C5               	movwf	log_event@addr
  5373     14FE                     l4030:
  5374                           
  5375                           ;car_black_box.c: 103:     eeprom_at24c04_str_write(addr, log);
  5376     14FE  30B9               	movlw	(low (_log| 0))& (0+255)
  5377     14FF  00F7               	movwf	eeprom_at24c04_str_write@data
  5378     1500  3000               	movlw	0
  5379     1501  00F8               	movwf	eeprom_at24c04_str_write@data+1
  5380     1502  0845               	movf	log_event@addr,w
  5381     1503  160A  118A  2375  160A  118A  	fcall	_eeprom_at24c04_str_write
  5382     1508                     l4032:
  5383                           
  5384                           ;car_black_box.c: 105:     if (event_count < 9)
  5385     1508  1283               	bcf	3,5	;RP0=0, select bank0
  5386     1509  1303               	bcf	3,6	;RP1=0, select bank0
  5387     150A  0867               	movf	_event_count+1,w
  5388     150B  3A80               	xorlw	128
  5389     150C  00FF               	movwf	btemp+1
  5390     150D  3080               	movlw	128
  5391     150E  027F               	subwf	btemp+1,w
  5392     150F  1D03               	skipz
  5393     1510  2D13               	goto	u3545
  5394     1511  3009               	movlw	9
  5395     1512  0266               	subwf	_event_count,w
  5396     1513                     u3545:
  5397     1513  1803               	skipnc
  5398     1514  2D16               	goto	u3541
  5399     1515  2D17               	goto	u3540
  5400     1516                     u3541:
  5401     1516  2D1F               	goto	l353
  5402     1517                     u3540:
  5403     1517                     l4034:
  5404                           
  5405                           ;car_black_box.c: 106:     {;car_black_box.c: 107:         event_count++;
  5406     1517  3001               	movlw	1
  5407     1518  1283               	bcf	3,5	;RP0=0, select bank0
  5408     1519  1303               	bcf	3,6	;RP1=0, select bank0
  5409     151A  07E6               	addwf	_event_count,f
  5410     151B  1803               	skipnc
  5411     151C  0AE7               	incf	_event_count+1,f
  5412     151D  3000               	movlw	0
  5413     151E  07E7               	addwf	_event_count+1,f
  5414     151F                     l353:
  5415     151F  0008               	return
  5416     1520                     __end_of_log_event:
  5417                           
  5418                           	psect	text10
  5419     146B                     __ptext10:	
  5420 ;; *************** function _init_config *****************
  5421 ;; Defined at:
  5422 ;;		line 32 in file "main.c"
  5423 ;; Parameters:    Size  Location     Type
  5424 ;;		None
  5425 ;; Auto vars:     Size  Location     Type
  5426 ;;		None
  5427 ;; Return value:  Size  Location     Type
  5428 ;;                  1    wreg      void 
  5429 ;; Registers used:
  5430 ;;		wreg, status,2, status,0, btemp+1, pclath, cstack
  5431 ;; Tracked objects:
  5432 ;;		On entry : 0/0
  5433 ;;		On exit  : 0/0
  5434 ;;		Unchanged: 0/0
  5435 ;; Data sizes:     COMMON   BANK0   BANK1   BANK3   BANK2
  5436 ;;      Params:         0       0       0       0       0
  5437 ;;      Locals:         0       0       0       0       0
  5438 ;;      Temps:          0       0       0       0       0
  5439 ;;      Totals:         0       0       0       0       0
  5440 ;;Total ram usage:        0 bytes
  5441 ;; Hardware stack levels used: 1
  5442 ;; Hardware stack levels required when called: 6
  5443 ;; This function calls:
  5444 ;;		_init_adc
  5445 ;;		_init_clcd
  5446 ;;		_init_digital_keypad
  5447 ;;		_init_ds1307
  5448 ;;		_init_i2c
  5449 ;;		_init_timer2
  5450 ;;		_init_uart
  5451 ;; This function is called by:
  5452 ;;		_main
  5453 ;; This function uses a non-reentrant model
  5454 ;;
  5455                           
  5456     146B                     _init_config:	
  5457                           ;psect for function _init_config
  5458                           
  5459     146B                     l4226:	
  5460                           ;incstack = 0
  5461                           ; Regs used in _init_config: [wreg+status,2+status,0+btemp+1+pclath+cstack]
  5462                           
  5463                           
  5464                           ;main.c: 34:     log_car_event(event, speed);
  5465     146B  160A  118A  2168  160A  118A  	fcall	_init_clcd
  5466     1470                     l4228:
  5467                           
  5468                           ;main.c: 35: 
  5469     1470  160A  118A  2126  160A  118A  	fcall	_init_adc
  5470     1475                     l4230:
  5471                           
  5472                           ;main.c: 36:     while (1)
  5473     1475  3000               	movlw	0
  5474     1476  1283               	bcf	3,5	;RP0=0, select bank0
  5475     1477  1303               	bcf	3,6	;RP1=0, select bank0
  5476     1478  00CE               	movwf	init_i2c@baud+3
  5477     1479  3001               	movlw	1
  5478     147A  00CD               	movwf	init_i2c@baud+2
  5479     147B  3086               	movlw	134
  5480     147C  00CC               	movwf	init_i2c@baud+1
  5481     147D  30A0               	movlw	160
  5482     147E  00CB               	movwf	init_i2c@baud
  5483     147F  160A  118A  2401  160A  118A  	fcall	_init_i2c
  5484     1484                     l4232:
  5485                           
  5486                           ;main.c: 37:     {
  5487     1484  160A  118A  21B0  160A  118A  	fcall	_init_ds1307
  5488     1489                     l4234:
  5489                           
  5490                           ;main.c: 38:         speed = read_adc() / 10;
  5491     1489  160A  118A  211A  160A  118A  	fcall	_init_digital_keypad
  5492     148E                     l4236:
  5493                           
  5494                           ;main.c: 39: 
  5495     148E  160A  118A  2180  160A  118A  	fcall	_init_timer2
  5496     1493                     l4238:
  5497                           
  5498                           ;main.c: 40: 
  5499     1493  3000               	movlw	0
  5500     1494  1283               	bcf	3,5	;RP0=0, select bank0
  5501     1495  1303               	bcf	3,6	;RP1=0, select bank0
  5502     1496  00CE               	movwf	init_uart@baud+3
  5503     1497  3000               	movlw	0
  5504     1498  00CD               	movwf	init_uart@baud+2
  5505     1499  3025               	movlw	37
  5506     149A  00CC               	movwf	init_uart@baud+1
  5507     149B  3080               	movlw	128
  5508     149C  00CB               	movwf	init_uart@baud
  5509     149D  160A  118A  23D1  160A  118A  	fcall	_init_uart
  5510     14A2                     l4240:
  5511                           
  5512                           ;main.c: 42:         {
  5513     14A2  170B               	bsf	11,6	;volatile
  5514     14A3                     l4242:
  5515                           
  5516                           ;main.c: 43:             speed = 99;
  5517     14A3  178B               	bsf	11,7	;volatile
  5518     14A4                     l59:
  5519     14A4  0008               	return
  5520     14A5                     __end_of_init_config:
  5521                           
  5522                           	psect	text11
  5523     13D1                     __ptext11:	
  5524 ;; *************** function _init_uart *****************
  5525 ;; Defined at:
  5526 ;;		line 4 in file "uart.c"
  5527 ;; Parameters:    Size  Location     Type
  5528 ;;  baud            4    6[BANK0 ] unsigned long 
  5529 ;; Auto vars:     Size  Location     Type
  5530 ;;		None
  5531 ;; Return value:  Size  Location     Type
  5532 ;;                  1    wreg      void 
  5533 ;; Registers used:
  5534 ;;		wreg, status,2, status,0, btemp+1, pclath, cstack
  5535 ;; Tracked objects:
  5536 ;;		On entry : 0/0
  5537 ;;		On exit  : 0/0
  5538 ;;		Unchanged: 0/0
  5539 ;; Data sizes:     COMMON   BANK0   BANK1   BANK3   BANK2
  5540 ;;      Params:         0       4       0       0       0
  5541 ;;      Locals:         0       0       0       0       0
  5542 ;;      Temps:          0       4       0       0       0
  5543 ;;      Totals:         0       8       0       0       0
  5544 ;;Total ram usage:        8 bytes
  5545 ;; Hardware stack levels used: 1
  5546 ;; Hardware stack levels required when called: 2
  5547 ;; This function calls:
  5548 ;;		___lldiv
  5549 ;; This function is called by:
  5550 ;;		_init_config
  5551 ;; This function uses a non-reentrant model
  5552 ;;
  5553                           
  5554     13D1                     _init_uart:	
  5555                           ;psect for function _init_uart
  5556                           
  5557     13D1                     l3984:	
  5558                           ;incstack = 0
  5559                           ; Regs used in _init_uart: [wreg+status,2+status,0+btemp+1+pclath+cstack]
  5560                           
  5561                           
  5562                           ;uart.c: 4: void init_uart(unsigned long baud);uart.c: 5: {;uart.c: 7:     SPEN = 1;
  5563     13D1  1283               	bcf	3,5	;RP0=0, select bank0
  5564     13D2  1303               	bcf	3,6	;RP1=0, select bank0
  5565     13D3  1798               	bsf	24,7	;volatile
  5566                           
  5567                           ;uart.c: 10:     CREN = 1;
  5568     13D4  1618               	bsf	24,4	;volatile
  5569     13D5                     l3986:
  5570                           
  5571                           ;uart.c: 13:     SPBRG = (20000000 / (16 * baud)) - 1;
  5572     13D5  084B               	movf	init_uart@baud,w
  5573     13D6  00CF               	movwf	??_init_uart
  5574     13D7  084C               	movf	init_uart@baud+1,w
  5575     13D8  00D0               	movwf	??_init_uart+1
  5576     13D9  084D               	movf	init_uart@baud+2,w
  5577     13DA  00D1               	movwf	??_init_uart+2
  5578     13DB  084E               	movf	init_uart@baud+3,w
  5579     13DC  00D2               	movwf	??_init_uart+3
  5580     13DD  3004               	movlw	4
  5581     13DE                     u3515:
  5582     13DE  1003               	clrc
  5583     13DF  0DCF               	rlf	??_init_uart,f
  5584     13E0  0DD0               	rlf	??_init_uart+1,f
  5585     13E1  0DD1               	rlf	??_init_uart+2,f
  5586     13E2  0DD2               	rlf	??_init_uart+3,f
  5587     13E3                     u3510:
  5588     13E3  3EFF               	addlw	-1
  5589     13E4  1D03               	skipz
  5590     13E5  2BDE               	goto	u3515
  5591     13E6  0852               	movf	??_init_uart+3,w
  5592     13E7  00F5               	movwf	___lldiv@divisor+3
  5593     13E8  0851               	movf	??_init_uart+2,w
  5594     13E9  00F4               	movwf	___lldiv@divisor+2
  5595     13EA  0850               	movf	??_init_uart+1,w
  5596     13EB  00F3               	movwf	___lldiv@divisor+1
  5597     13EC  084F               	movf	??_init_uart,w
  5598     13ED  00F2               	movwf	___lldiv@divisor
  5599     13EE  3001               	movlw	1
  5600     13EF  00F9               	movwf	___lldiv@dividend+3
  5601     13F0  3031               	movlw	49
  5602     13F1  00F8               	movwf	___lldiv@dividend+2
  5603     13F2  302D               	movlw	45
  5604     13F3  00F7               	movwf	___lldiv@dividend+1
  5605     13F4  3000               	movlw	0
  5606     13F5  00F6               	movwf	___lldiv@dividend
  5607     13F6  120A  158A  2174  160A  118A  	fcall	___lldiv
  5608     13FB  0872               	movf	?___lldiv,w
  5609     13FC  3EFF               	addlw	255
  5610     13FD  1683               	bsf	3,5	;RP0=1, select bank1
  5611     13FE  1303               	bcf	3,6	;RP1=0, select bank1
  5612     13FF  0099               	movwf	25	;volatile
  5613     1400                     l533:
  5614     1400  0008               	return
  5615     1401                     __end_of_init_uart:
  5616                           
  5617                           	psect	text12
  5618     1180                     __ptext12:	
  5619 ;; *************** function _init_timer2 *****************
  5620 ;; Defined at:
  5621 ;;		line 3 in file "timers.c"
  5622 ;; Parameters:    Size  Location     Type
  5623 ;;		None
  5624 ;; Auto vars:     Size  Location     Type
  5625 ;;		None
  5626 ;; Return value:  Size  Location     Type
  5627 ;;                  1    wreg      void 
  5628 ;; Registers used:
  5629 ;;		wreg
  5630 ;; Tracked objects:
  5631 ;;		On entry : 0/0
  5632 ;;		On exit  : 0/0
  5633 ;;		Unchanged: 0/0
  5634 ;; Data sizes:     COMMON   BANK0   BANK1   BANK3   BANK2
  5635 ;;      Params:         0       0       0       0       0
  5636 ;;      Locals:         0       0       0       0       0
  5637 ;;      Temps:          0       0       0       0       0
  5638 ;;      Totals:         0       0       0       0       0
  5639 ;;Total ram usage:        0 bytes
  5640 ;; Hardware stack levels used: 1
  5641 ;; Hardware stack levels required when called: 1
  5642 ;; This function calls:
  5643 ;;		Nothing
  5644 ;; This function is called by:
  5645 ;;		_init_config
  5646 ;; This function uses a non-reentrant model
  5647 ;;
  5648                           
  5649     1180                     _init_timer2:	
  5650                           ;psect for function _init_timer2
  5651                           
  5652     1180                     l3976:	
  5653                           ;incstack = 0
  5654                           ; Regs used in _init_timer2: [wreg]
  5655                           
  5656                           
  5657                           ;timers.c: 6:     T2CKPS0 = 1;
  5658     1180  1283               	bcf	3,5	;RP0=0, select bank0
  5659     1181  1303               	bcf	3,6	;RP1=0, select bank0
  5660     1182  1412               	bsf	18,0	;volatile
  5661                           
  5662                           ;timers.c: 7:     T2CKPS1 = 1;
  5663     1183  1492               	bsf	18,1	;volatile
  5664     1184                     l3978:
  5665                           
  5666                           ;timers.c: 10:     PR2 = 250;
  5667     1184  30FA               	movlw	250
  5668     1185  1683               	bsf	3,5	;RP0=1, select bank1
  5669     1186  1303               	bcf	3,6	;RP1=0, select bank1
  5670     1187  0092               	movwf	18	;volatile
  5671     1188                     l3980:
  5672                           
  5673                           ;timers.c: 13:     TMR2IE = 1;
  5674     1188  148C               	bsf	12,1	;volatile
  5675     1189                     l3982:
  5676                           
  5677                           ;timers.c: 16:     TMR2ON = 1;
  5678     1189  1283               	bcf	3,5	;RP0=0, select bank0
  5679     118A  1303               	bcf	3,6	;RP1=0, select bank0
  5680     118B  1512               	bsf	18,2	;volatile
  5681     118C                     l516:
  5682     118C  0008               	return
  5683     118D                     __end_of_init_timer2:
  5684                           
  5685                           	psect	text13
  5686     1401                     __ptext13:	
  5687 ;; *************** function _init_i2c *****************
  5688 ;; Defined at:
  5689 ;;		line 4 in file "i2c.c"
  5690 ;; Parameters:    Size  Location     Type
  5691 ;;  baud            4    6[BANK0 ] unsigned long 
  5692 ;; Auto vars:     Size  Location     Type
  5693 ;;		None
  5694 ;; Return value:  Size  Location     Type
  5695 ;;                  1    wreg      void 
  5696 ;; Registers used:
  5697 ;;		wreg, status,2, status,0, btemp+1, pclath, cstack
  5698 ;; Tracked objects:
  5699 ;;		On entry : 0/0
  5700 ;;		On exit  : 0/0
  5701 ;;		Unchanged: 0/0
  5702 ;; Data sizes:     COMMON   BANK0   BANK1   BANK3   BANK2
  5703 ;;      Params:         0       4       0       0       0
  5704 ;;      Locals:         0       0       0       0       0
  5705 ;;      Temps:          0       4       0       0       0
  5706 ;;      Totals:         0       8       0       0       0
  5707 ;;Total ram usage:        8 bytes
  5708 ;; Hardware stack levels used: 1
  5709 ;; Hardware stack levels required when called: 2
  5710 ;; This function calls:
  5711 ;;		___lldiv
  5712 ;; This function is called by:
  5713 ;;		_init_config
  5714 ;; This function uses a non-reentrant model
  5715 ;;
  5716                           
  5717     1401                     _init_i2c:	
  5718                           ;psect for function _init_i2c
  5719                           
  5720     1401                     l3962:	
  5721                           ;incstack = 0
  5722                           ; Regs used in _init_i2c: [wreg+status,2+status,0+btemp+1+pclath+cstack]
  5723                           
  5724                           
  5725                           ;i2c.c: 4: void init_i2c(unsigned long baud);i2c.c: 5: {;i2c.c: 7:     SSPM3 = 1;
  5726     1401  1283               	bcf	3,5	;RP0=0, select bank0
  5727     1402  1303               	bcf	3,6	;RP1=0, select bank0
  5728     1403  1594               	bsf	20,3	;volatile
  5729     1404                     l3964:
  5730                           
  5731                           ;i2c.c: 10:     SSPADD = (unsigned char) (20000000 / (4 * baud)) - 1;
  5732     1404  084B               	movf	init_i2c@baud,w
  5733     1405  00CF               	movwf	??_init_i2c
  5734     1406  084C               	movf	init_i2c@baud+1,w
  5735     1407  00D0               	movwf	??_init_i2c+1
  5736     1408  084D               	movf	init_i2c@baud+2,w
  5737     1409  00D1               	movwf	??_init_i2c+2
  5738     140A  084E               	movf	init_i2c@baud+3,w
  5739     140B  00D2               	movwf	??_init_i2c+3
  5740     140C  3002               	movlw	2
  5741     140D                     u3505:
  5742     140D  1003               	clrc
  5743     140E  0DCF               	rlf	??_init_i2c,f
  5744     140F  0DD0               	rlf	??_init_i2c+1,f
  5745     1410  0DD1               	rlf	??_init_i2c+2,f
  5746     1411  0DD2               	rlf	??_init_i2c+3,f
  5747     1412                     u3500:
  5748     1412  3EFF               	addlw	-1
  5749     1413  1D03               	skipz
  5750     1414  2C0D               	goto	u3505
  5751     1415  0852               	movf	??_init_i2c+3,w
  5752     1416  00F5               	movwf	___lldiv@divisor+3
  5753     1417  0851               	movf	??_init_i2c+2,w
  5754     1418  00F4               	movwf	___lldiv@divisor+2
  5755     1419  0850               	movf	??_init_i2c+1,w
  5756     141A  00F3               	movwf	___lldiv@divisor+1
  5757     141B  084F               	movf	??_init_i2c,w
  5758     141C  00F2               	movwf	___lldiv@divisor
  5759     141D  3001               	movlw	1
  5760     141E  00F9               	movwf	___lldiv@dividend+3
  5761     141F  3031               	movlw	49
  5762     1420  00F8               	movwf	___lldiv@dividend+2
  5763     1421  302D               	movlw	45
  5764     1422  00F7               	movwf	___lldiv@dividend+1
  5765     1423  3000               	movlw	0
  5766     1424  00F6               	movwf	___lldiv@dividend
  5767     1425  120A  158A  2174  160A  118A  	fcall	___lldiv
  5768     142A  0872               	movf	?___lldiv,w
  5769     142B  3EFF               	addlw	255
  5770     142C  1683               	bsf	3,5	;RP0=1, select bank1
  5771     142D  1303               	bcf	3,6	;RP1=0, select bank1
  5772     142E  0093               	movwf	19	;volatile
  5773     142F                     l3966:
  5774                           
  5775                           ;i2c.c: 13:     SSPEN = 1;
  5776     142F  1283               	bcf	3,5	;RP0=0, select bank0
  5777     1430  1303               	bcf	3,6	;RP1=0, select bank0
  5778     1431  1694               	bsf	20,5	;volatile
  5779     1432                     l252:
  5780     1432  0008               	return
  5781     1433                     __end_of_init_i2c:
  5782                           
  5783                           	psect	text14
  5784     0974                     __ptext14:	
  5785 ;; *************** function ___lldiv *****************
  5786 ;; Defined at:
  5787 ;;		line 5 in file "C:\Program Files\Microchip\xc8\v2.46\pic\sources\c99\common\__lldiv.c"
  5788 ;; Parameters:    Size  Location     Type
  5789 ;;  divisor         4    2[COMMON] unsigned long 
  5790 ;;  dividend        4    6[COMMON] unsigned long 
  5791 ;; Auto vars:     Size  Location     Type
  5792 ;;  quotient        4    1[BANK0 ] unsigned long 
  5793 ;;  counter         1    5[BANK0 ] unsigned char 
  5794 ;; Return value:  Size  Location     Type
  5795 ;;                  4    2[COMMON] unsigned long 
  5796 ;; Registers used:
  5797 ;;		wreg, status,2, status,0, btemp+1
  5798 ;; Tracked objects:
  5799 ;;		On entry : 0/0
  5800 ;;		On exit  : 0/0
  5801 ;;		Unchanged: 0/0
  5802 ;; Data sizes:     COMMON   BANK0   BANK1   BANK3   BANK2
  5803 ;;      Params:         8       0       0       0       0
  5804 ;;      Locals:         0       5       0       0       0
  5805 ;;      Temps:          0       1       0       0       0
  5806 ;;      Totals:         8       6       0       0       0
  5807 ;;Total ram usage:       14 bytes
  5808 ;; Hardware stack levels used: 1
  5809 ;; Hardware stack levels required when called: 1
  5810 ;; This function calls:
  5811 ;;		Nothing
  5812 ;; This function is called by:
  5813 ;;		_init_i2c
  5814 ;;		_init_uart
  5815 ;; This function uses a non-reentrant model
  5816 ;;
  5817                           
  5818     0974                     ___lldiv:	
  5819                           ;psect for function ___lldiv
  5820                           
  5821     0974                     l3926:	
  5822                           ;incstack = 0
  5823                           ; Regs used in ___lldiv: [wreg+status,2+status,0+btemp+1]
  5824                           
  5825     0974  3000               	movlw	0
  5826     0975  1283               	bcf	3,5	;RP0=0, select bank0
  5827     0976  1303               	bcf	3,6	;RP1=0, select bank0
  5828     0977  00C9               	movwf	___lldiv@quotient+3
  5829     0978  3000               	movlw	0
  5830     0979  00C8               	movwf	___lldiv@quotient+2
  5831     097A  3000               	movlw	0
  5832     097B  00C7               	movwf	___lldiv@quotient+1
  5833     097C  3000               	movlw	0
  5834     097D  00C6               	movwf	___lldiv@quotient
  5835     097E  0875               	movf	___lldiv@divisor+3,w
  5836     097F  0474               	iorwf	___lldiv@divisor+2,w
  5837     0980  0473               	iorwf	___lldiv@divisor+1,w
  5838     0981  0472               	iorwf	___lldiv@divisor,w
  5839     0982  1903               	skipnz
  5840     0983  2985               	goto	u3431
  5841     0984  2986               	goto	u3430
  5842     0985                     u3431:
  5843     0985  29D3               	goto	l3948
  5844     0986                     u3430:
  5845     0986                     l3928:
  5846     0986  01CA               	clrf	___lldiv@counter
  5847     0987  0ACA               	incf	___lldiv@counter,f
  5848     0988  2996               	goto	l3934
  5849     0989                     l3930:
  5850     0989  3001               	movlw	1
  5851     098A  00C5               	movwf	??___lldiv
  5852     098B                     u3445:
  5853     098B  1003               	clrc
  5854     098C  0DF2               	rlf	___lldiv@divisor,f
  5855     098D  0DF3               	rlf	___lldiv@divisor+1,f
  5856     098E  0DF4               	rlf	___lldiv@divisor+2,f
  5857     098F  0DF5               	rlf	___lldiv@divisor+3,f
  5858     0990  0BC5               	decfsz	??___lldiv,f
  5859     0991  298B               	goto	u3445
  5860     0992                     l3932:
  5861     0992  3001               	movlw	1
  5862     0993  00FF               	movwf	btemp+1
  5863     0994  087F               	movf	btemp+1,w
  5864     0995  07CA               	addwf	___lldiv@counter,f
  5865     0996                     l3934:
  5866     0996  1FF5               	btfss	___lldiv@divisor+3,7
  5867     0997  2999               	goto	u3451
  5868     0998  299A               	goto	u3450
  5869     0999                     u3451:
  5870     0999  2989               	goto	l3930
  5871     099A                     u3450:
  5872     099A                     l3936:
  5873     099A  3001               	movlw	1
  5874     099B  00C5               	movwf	??___lldiv
  5875     099C                     u3465:
  5876     099C  1003               	clrc
  5877     099D  0DC6               	rlf	___lldiv@quotient,f
  5878     099E  0DC7               	rlf	___lldiv@quotient+1,f
  5879     099F  0DC8               	rlf	___lldiv@quotient+2,f
  5880     09A0  0DC9               	rlf	___lldiv@quotient+3,f
  5881     09A1  0BC5               	decfsz	??___lldiv,f
  5882     09A2  299C               	goto	u3465
  5883     09A3                     l3938:
  5884     09A3  0875               	movf	___lldiv@divisor+3,w
  5885     09A4  0279               	subwf	___lldiv@dividend+3,w
  5886     09A5  1D03               	skipz
  5887     09A6  29B1               	goto	u3475
  5888     09A7  0874               	movf	___lldiv@divisor+2,w
  5889     09A8  0278               	subwf	___lldiv@dividend+2,w
  5890     09A9  1D03               	skipz
  5891     09AA  29B1               	goto	u3475
  5892     09AB  0873               	movf	___lldiv@divisor+1,w
  5893     09AC  0277               	subwf	___lldiv@dividend+1,w
  5894     09AD  1D03               	skipz
  5895     09AE  29B1               	goto	u3475
  5896     09AF  0872               	movf	___lldiv@divisor,w
  5897     09B0  0276               	subwf	___lldiv@dividend,w
  5898     09B1                     u3475:
  5899     09B1  1C03               	skipc
  5900     09B2  29B4               	goto	u3471
  5901     09B3  29B5               	goto	u3470
  5902     09B4                     u3471:
  5903     09B4  29C4               	goto	l3944
  5904     09B5                     u3470:
  5905     09B5                     l3940:
  5906     09B5  0872               	movf	___lldiv@divisor,w
  5907     09B6  02F6               	subwf	___lldiv@dividend,f
  5908     09B7  0873               	movf	___lldiv@divisor+1,w
  5909     09B8  1C03               	skipc
  5910     09B9  0F73               	incfsz	___lldiv@divisor+1,w
  5911     09BA  02F7               	subwf	___lldiv@dividend+1,f
  5912     09BB  0874               	movf	___lldiv@divisor+2,w
  5913     09BC  1C03               	skipc
  5914     09BD  0F74               	incfsz	___lldiv@divisor+2,w
  5915     09BE  02F8               	subwf	___lldiv@dividend+2,f
  5916     09BF  0875               	movf	___lldiv@divisor+3,w
  5917     09C0  1C03               	skipc
  5918     09C1  0F75               	incfsz	___lldiv@divisor+3,w
  5919     09C2  02F9               	subwf	___lldiv@dividend+3,f
  5920     09C3                     l3942:
  5921     09C3  1446               	bsf	___lldiv@quotient,0
  5922     09C4                     l3944:
  5923     09C4  3001               	movlw	1
  5924     09C5                     u3485:
  5925     09C5  1003               	clrc
  5926     09C6  0CF5               	rrf	___lldiv@divisor+3,f
  5927     09C7  0CF4               	rrf	___lldiv@divisor+2,f
  5928     09C8  0CF3               	rrf	___lldiv@divisor+1,f
  5929     09C9  0CF2               	rrf	___lldiv@divisor,f
  5930     09CA  3EFF               	addlw	-1
  5931     09CB  1D03               	skipz
  5932     09CC  29C5               	goto	u3485
  5933     09CD                     l3946:
  5934     09CD  3001               	movlw	1
  5935     09CE  02CA               	subwf	___lldiv@counter,f
  5936     09CF  1D03               	btfss	3,2
  5937     09D0  29D2               	goto	u3491
  5938     09D1  29D3               	goto	u3490
  5939     09D2                     u3491:
  5940     09D2  299A               	goto	l3936
  5941     09D3                     u3490:
  5942     09D3                     l3948:
  5943     09D3  0849               	movf	___lldiv@quotient+3,w
  5944     09D4  00F5               	movwf	?___lldiv+3
  5945     09D5  0848               	movf	___lldiv@quotient+2,w
  5946     09D6  00F4               	movwf	?___lldiv+2
  5947     09D7  0847               	movf	___lldiv@quotient+1,w
  5948     09D8  00F3               	movwf	?___lldiv+1
  5949     09D9  0846               	movf	___lldiv@quotient,w
  5950     09DA  00F2               	movwf	?___lldiv
  5951     09DB                     l673:
  5952     09DB  0008               	return
  5953     09DC                     __end_of___lldiv:
  5954                           
  5955                           	psect	text15
  5956     11B0                     __ptext15:	
  5957 ;; *************** function _init_ds1307 *****************
  5958 ;; Defined at:
  5959 ;;		line 5 in file "ds1307.c"
  5960 ;; Parameters:    Size  Location     Type
  5961 ;;		None
  5962 ;; Auto vars:     Size  Location     Type
  5963 ;;  dummy           1    6[COMMON] unsigned char 
  5964 ;; Return value:  Size  Location     Type
  5965 ;;                  1    wreg      void 
  5966 ;; Registers used:
  5967 ;;		wreg, status,2, status,0, pclath, cstack
  5968 ;; Tracked objects:
  5969 ;;		On entry : 0/0
  5970 ;;		On exit  : 0/0
  5971 ;;		Unchanged: 0/0
  5972 ;; Data sizes:     COMMON   BANK0   BANK1   BANK3   BANK2
  5973 ;;      Params:         0       0       0       0       0
  5974 ;;      Locals:         1       0       0       0       0
  5975 ;;      Temps:          0       0       0       0       0
  5976 ;;      Totals:         1       0       0       0       0
  5977 ;;Total ram usage:        1 bytes
  5978 ;; Hardware stack levels used: 1
  5979 ;; Hardware stack levels required when called: 5
  5980 ;; This function calls:
  5981 ;;		_read_ds1307
  5982 ;;		_write_ds1307
  5983 ;; This function is called by:
  5984 ;;		_init_config
  5985 ;; This function uses a non-reentrant model
  5986 ;;
  5987                           
  5988     11B0                     _init_ds1307:	
  5989                           ;psect for function _init_ds1307
  5990                           
  5991     11B0                     l3968:	
  5992                           ;incstack = 0
  5993                           ; Regs used in _init_ds1307: [wreg+status,2+status,0+pclath+cstack]
  5994                           
  5995                           
  5996                           ;ds1307.c: 7:     unsigned char dummy;;ds1307.c: 9:     dummy = read_ds1307(0x00);
  5997     11B0  3000               	movlw	0
  5998     11B1  160A  118A  22F4  160A  118A  	fcall	_read_ds1307
  5999     11B6  00F6               	movwf	init_ds1307@dummy
  6000     11B7                     l3970:
  6001                           
  6002                           ;ds1307.c: 10:     dummy = dummy & 0x7F;
  6003     11B7  0876               	movf	init_ds1307@dummy,w
  6004     11B8  397F               	andlw	127
  6005     11B9  00F6               	movwf	init_ds1307@dummy
  6006     11BA                     l3972:
  6007                           
  6008                           ;ds1307.c: 11:     write_ds1307(0x00, dummy);
  6009     11BA  0876               	movf	init_ds1307@dummy,w
  6010     11BB  00F3               	movwf	write_ds1307@data
  6011     11BC  3000               	movlw	0
  6012     11BD  160A  118A  2200  160A  118A  	fcall	_write_ds1307
  6013     11C2                     l217:
  6014     11C2  0008               	return
  6015     11C3                     __end_of_init_ds1307:
  6016                           
  6017                           	psect	text16
  6018     111A                     __ptext16:	
  6019 ;; *************** function _init_digital_keypad *****************
  6020 ;; Defined at:
  6021 ;;		line 4 in file "digital_keypad.c"
  6022 ;; Parameters:    Size  Location     Type
  6023 ;;		None
  6024 ;; Auto vars:     Size  Location     Type
  6025 ;;		None
  6026 ;; Return value:  Size  Location     Type
  6027 ;;                  1    wreg      void 
  6028 ;; Registers used:
  6029 ;;		wreg, status,2
  6030 ;; Tracked objects:
  6031 ;;		On entry : 0/0
  6032 ;;		On exit  : 0/0
  6033 ;;		Unchanged: 0/0
  6034 ;; Data sizes:     COMMON   BANK0   BANK1   BANK3   BANK2
  6035 ;;      Params:         0       0       0       0       0
  6036 ;;      Locals:         0       0       0       0       0
  6037 ;;      Temps:          0       0       0       0       0
  6038 ;;      Totals:         0       0       0       0       0
  6039 ;;Total ram usage:        0 bytes
  6040 ;; Hardware stack levels used: 1
  6041 ;; Hardware stack levels required when called: 1
  6042 ;; This function calls:
  6043 ;;		Nothing
  6044 ;; This function is called by:
  6045 ;;		_init_config
  6046 ;; This function uses a non-reentrant model
  6047 ;;
  6048                           
  6049     111A                     _init_digital_keypad:	
  6050                           ;psect for function _init_digital_keypad
  6051                           
  6052     111A                     l3974:	
  6053                           ;incstack = 0
  6054                           ; Regs used in _init_digital_keypad: [wreg+status,2]
  6055                           
  6056                           
  6057                           ;digital_keypad.c: 7:     TRISB = TRISB | 0x3F;
  6058     111A  1683               	bsf	3,5	;RP0=1, select bank1
  6059     111B  1303               	bcf	3,6	;RP1=0, select bank1
  6060     111C  0806               	movf	6,w	;volatile
  6061     111D  383F               	iorlw	63
  6062     111E  0086               	movwf	6	;volatile
  6063     111F                     l182:
  6064     111F  0008               	return
  6065     1120                     __end_of_init_digital_keypad:
  6066                           
  6067                           	psect	text17
  6068     1168                     __ptext17:	
  6069 ;; *************** function _init_clcd *****************
  6070 ;; Defined at:
  6071 ;;		line 37 in file "clcd.c"
  6072 ;; Parameters:    Size  Location     Type
  6073 ;;		None
  6074 ;; Auto vars:     Size  Location     Type
  6075 ;;		None
  6076 ;; Return value:  Size  Location     Type
  6077 ;;                  1    wreg      void 
  6078 ;; Registers used:
  6079 ;;		wreg, status,2, status,0, pclath, cstack
  6080 ;; Tracked objects:
  6081 ;;		On entry : 0/0
  6082 ;;		On exit  : 0/0
  6083 ;;		Unchanged: 0/0
  6084 ;; Data sizes:     COMMON   BANK0   BANK1   BANK3   BANK2
  6085 ;;      Params:         0       0       0       0       0
  6086 ;;      Locals:         0       0       0       0       0
  6087 ;;      Temps:          0       0       0       0       0
  6088 ;;      Totals:         0       0       0       0       0
  6089 ;;Total ram usage:        0 bytes
  6090 ;; Hardware stack levels used: 1
  6091 ;; Hardware stack levels required when called: 3
  6092 ;; This function calls:
  6093 ;;		_init_display_controller
  6094 ;; This function is called by:
  6095 ;;		_init_config
  6096 ;; This function uses a non-reentrant model
  6097 ;;
  6098                           
  6099     1168                     _init_clcd:	
  6100                           ;psect for function _init_clcd
  6101                           
  6102     1168                     l3952:	
  6103                           ;incstack = 0
  6104                           ; Regs used in _init_clcd: [wreg+status,2+status,0+pclath+cstack]
  6105                           
  6106                           
  6107                           ;clcd.c: 40:     TRISD = 0x00;
  6108     1168  1683               	bsf	3,5	;RP0=1, select bank1
  6109     1169  1303               	bcf	3,6	;RP1=0, select bank1
  6110     116A  0188               	clrf	8	;volatile
  6111     116B                     l3954:
  6112                           
  6113                           ;clcd.c: 43:     TRISE2 = 0;
  6114     116B  1109               	bcf	9,2	;volatile
  6115     116C                     l3956:
  6116                           
  6117                           ;clcd.c: 44:     TRISE1 = 0;
  6118     116C  1089               	bcf	9,1	;volatile
  6119     116D                     l3958:
  6120                           
  6121                           ;clcd.c: 46:     init_display_controller();
  6122     116D  160A  118A  26F8  160A  118A  	fcall	_init_display_controller
  6123     1172                     l166:
  6124     1172  0008               	return
  6125     1173                     __end_of_init_clcd:
  6126                           
  6127                           	psect	text18
  6128     16F8                     __ptext18:	
  6129 ;; *************** function _init_display_controller *****************
  6130 ;; Defined at:
  6131 ;;		line 16 in file "clcd.c"
  6132 ;; Parameters:    Size  Location     Type
  6133 ;;		None
  6134 ;; Auto vars:     Size  Location     Type
  6135 ;;		None
  6136 ;; Return value:  Size  Location     Type
  6137 ;;                  1    wreg      void 
  6138 ;; Registers used:
  6139 ;;		wreg, status,2, status,0, pclath, cstack
  6140 ;; Tracked objects:
  6141 ;;		On entry : 0/0
  6142 ;;		On exit  : 0/0
  6143 ;;		Unchanged: 0/0
  6144 ;; Data sizes:     COMMON   BANK0   BANK1   BANK3   BANK2
  6145 ;;      Params:         0       0       0       0       0
  6146 ;;      Locals:         0       0       0       0       0
  6147 ;;      Temps:          2       0       0       0       0
  6148 ;;      Totals:         2       0       0       0       0
  6149 ;;Total ram usage:        2 bytes
  6150 ;; Hardware stack levels used: 1
  6151 ;; Hardware stack levels required when called: 2
  6152 ;; This function calls:
  6153 ;;		_clcd_write
  6154 ;; This function is called by:
  6155 ;;		_init_clcd
  6156 ;; This function uses a non-reentrant model
  6157 ;;
  6158                           
  6159     16F8                     _init_display_controller:	
  6160                           ;psect for function _init_display_controller
  6161                           
  6162     16F8                     l3868:	
  6163                           ;incstack = 0
  6164                           ; Regs used in _init_display_controller: [wreg+status,2+status,0+pclath+cstack]
  6165                           
  6166                           
  6167                           ;clcd.c: 19:     _delay((unsigned long)((30)*(20000000/4000.0)));
  6168     16F8  30C3               	movlw	195
  6169     16F9  00F7               	movwf	??_init_display_controller+1
  6170     16FA  30CD               	movlw	205
  6171     16FB  00F6               	movwf	??_init_display_controller
  6172     16FC                     u5047:
  6173     16FC  0BF6               	decfsz	??_init_display_controller,f
  6174     16FD  2EFC               	goto	u5047
  6175     16FE  0BF7               	decfsz	??_init_display_controller+1,f
  6176     16FF  2EFC               	goto	u5047
  6177     1700                     l3870:
  6178                           
  6179                           ;clcd.c: 22:     clcd_write(0x33, 0);
  6180     1700  01F2               	clrf	clcd_write@mode
  6181     1701  3033               	movlw	51
  6182     1702  160A  118A  221E  160A  118A  	fcall	_clcd_write
  6183     1707                     l3872:
  6184                           
  6185                           ;clcd.c: 23:     _delay((unsigned long)((4100)*(20000000/4000000.0)));
  6186     1707  301B               	movlw	27
  6187     1708  00F7               	movwf	??_init_display_controller+1
  6188     1709  309E               	movlw	158
  6189     170A  00F6               	movwf	??_init_display_controller
  6190     170B                     u5057:
  6191     170B  0BF6               	decfsz	??_init_display_controller,f
  6192     170C  2F0B               	goto	u5057
  6193     170D  0BF7               	decfsz	??_init_display_controller+1,f
  6194     170E  2F0B               	goto	u5057
  6195     170F  0000               	nop
  6196                           
  6197                           ;clcd.c: 24:     clcd_write(0x33, 0);
  6198     1710  01F2               	clrf	clcd_write@mode
  6199     1711  3033               	movlw	51
  6200     1712  160A  118A  221E  160A  118A  	fcall	_clcd_write
  6201     1717                     l3874:
  6202                           
  6203                           ;clcd.c: 25:     _delay((unsigned long)((100)*(20000000/4000000.0)));
  6204     1717  30A6               	movlw	166
  6205     1718  00F6               	movwf	??_init_display_controller
  6206     1719                     u5067:
  6207     1719  0BF6               	decfsz	??_init_display_controller,f
  6208     171A  2F19               	goto	u5067
  6209     171B  0000               	nop
  6210     171C                     l3876:
  6211                           
  6212                           ;clcd.c: 26:     clcd_write(0x33, 0);
  6213     171C  01F2               	clrf	clcd_write@mode
  6214     171D  3033               	movlw	51
  6215     171E  160A  118A  221E  160A  118A  	fcall	_clcd_write
  6216     1723                     l3878:
  6217                           
  6218                           ;clcd.c: 27:     _delay((unsigned long)((1)*(20000000/4000000.0)));
  6219     1723  2F24               	nop2	;2 cycle nop
  6220     1724  2F25               	nop2	;2 cycle nop
  6221     1725  0000               	nop
  6222     1726                     l3880:
  6223                           
  6224                           ;clcd.c: 29:     clcd_write(0x38, 0);
  6225     1726  01F2               	clrf	clcd_write@mode
  6226     1727  3038               	movlw	56
  6227     1728  160A  118A  221E  160A  118A  	fcall	_clcd_write
  6228     172D                     l3882:
  6229                           
  6230                           ;clcd.c: 30:     _delay((unsigned long)((100)*(20000000/4000000.0)));
  6231     172D  30A6               	movlw	166
  6232     172E  00F6               	movwf	??_init_display_controller
  6233     172F                     u5077:
  6234     172F  0BF6               	decfsz	??_init_display_controller,f
  6235     1730  2F2F               	goto	u5077
  6236     1731  0000               	nop
  6237                           
  6238                           ;clcd.c: 31:     clcd_write(0x01, 0);
  6239     1732  01F2               	clrf	clcd_write@mode
  6240     1733  3001               	movlw	1
  6241     1734  160A  118A  221E  160A  118A  	fcall	_clcd_write
  6242     1739                     l3884:
  6243                           
  6244                           ;clcd.c: 32:     _delay((unsigned long)((500)*(20000000/4000000.0)));
  6245     1739  3004               	movlw	4
  6246     173A  00F7               	movwf	??_init_display_controller+1
  6247     173B  303D               	movlw	61
  6248     173C  00F6               	movwf	??_init_display_controller
  6249     173D                     u5087:
  6250     173D  0BF6               	decfsz	??_init_display_controller,f
  6251     173E  2F3D               	goto	u5087
  6252     173F  0BF7               	decfsz	??_init_display_controller+1,f
  6253     1740  2F3D               	goto	u5087
  6254     1741  2F42               	nop2
  6255     1742                     l3886:
  6256                           
  6257                           ;clcd.c: 33:     clcd_write(0x0C, 0);
  6258     1742  01F2               	clrf	clcd_write@mode
  6259     1743  300C               	movlw	12
  6260     1744  160A  118A  221E  160A  118A  	fcall	_clcd_write
  6261                           
  6262                           ;clcd.c: 34:     _delay((unsigned long)((100)*(20000000/4000000.0)));
  6263     1749  30A6               	movlw	166
  6264     174A  00F6               	movwf	??_init_display_controller
  6265     174B                     u5097:
  6266     174B  0BF6               	decfsz	??_init_display_controller,f
  6267     174C  2F4B               	goto	u5097
  6268     174D  0000               	nop
  6269     174E                     l163:
  6270     174E  0008               	return
  6271     174F                     __end_of_init_display_controller:
  6272                           
  6273                           	psect	text19
  6274     1126                     __ptext19:	
  6275 ;; *************** function _init_adc *****************
  6276 ;; Defined at:
  6277 ;;		line 3 in file "adc.c"
  6278 ;; Parameters:    Size  Location     Type
  6279 ;;		None
  6280 ;; Auto vars:     Size  Location     Type
  6281 ;;		None
  6282 ;; Return value:  Size  Location     Type
  6283 ;;                  1    wreg      void 
  6284 ;; Registers used:
  6285 ;;		None
  6286 ;; Tracked objects:
  6287 ;;		On entry : 0/0
  6288 ;;		On exit  : 0/0
  6289 ;;		Unchanged: 0/0
  6290 ;; Data sizes:     COMMON   BANK0   BANK1   BANK3   BANK2
  6291 ;;      Params:         0       0       0       0       0
  6292 ;;      Locals:         0       0       0       0       0
  6293 ;;      Temps:          0       0       0       0       0
  6294 ;;      Totals:         0       0       0       0       0
  6295 ;;Total ram usage:        0 bytes
  6296 ;; Hardware stack levels used: 1
  6297 ;; Hardware stack levels required when called: 1
  6298 ;; This function calls:
  6299 ;;		Nothing
  6300 ;; This function is called by:
  6301 ;;		_init_config
  6302 ;; This function uses a non-reentrant model
  6303 ;;
  6304                           
  6305     1126                     _init_adc:	
  6306                           ;psect for function _init_adc
  6307                           
  6308     1126                     l3960:	
  6309                           ;incstack = 0
  6310                           ; Regs used in _init_adc: []
  6311                           
  6312                           
  6313                           ;adc.c: 6:     ADFM = 1;
  6314     1126  1683               	bsf	3,5	;RP0=1, select bank1
  6315     1127  1303               	bcf	3,6	;RP1=0, select bank1
  6316     1128  179F               	bsf	31,7	;volatile
  6317                           
  6318                           ;adc.c: 9:     ADON = 1;
  6319     1129  1283               	bcf	3,5	;RP0=0, select bank0
  6320     112A  1303               	bcf	3,6	;RP1=0, select bank0
  6321     112B  141F               	bsf	31,0	;volatile
  6322     112C                     l137:
  6323     112C  0008               	return
  6324     112D                     __end_of_init_adc:
  6325                           
  6326                           	psect	text20
  6327     0A65                     __ptext20:	
  6328 ;; *************** function _download_log *****************
  6329 ;; Defined at:
  6330 ;;		line 433 in file "car_black_box.c"
  6331 ;; Parameters:    Size  Location     Type
  6332 ;;		None
  6333 ;; Auto vars:     Size  Location     Type
  6334 ;;  i               2   16[BANK0 ] int 
  6335 ;;  log            11    0[BANK0 ] unsigned char [11]
  6336 ;;  index           2   14[BANK0 ] int 
  6337 ;;  position        2   12[BANK0 ] int 
  6338 ;;  add             1   11[BANK0 ] unsigned char 
  6339 ;; Return value:  Size  Location     Type
  6340 ;;                  1    wreg      void 
  6341 ;; Registers used:
  6342 ;;		wreg, fsr0l, fsr0h, status,2, status,0, btemp+1, pclath, cstack
  6343 ;; Tracked objects:
  6344 ;;		On entry : 0/0
  6345 ;;		On exit  : 0/0
  6346 ;;		Unchanged: 0/0
  6347 ;; Data sizes:     COMMON   BANK0   BANK1   BANK3   BANK2
  6348 ;;      Params:         0       0       0       0       0
  6349 ;;      Locals:         0      18       0       0       0
  6350 ;;      Temps:          1       0       0       0       0
  6351 ;;      Totals:         1      18       0       0       0
  6352 ;;Total ram usage:       19 bytes
  6353 ;; Hardware stack levels used: 1
  6354 ;; Hardware stack levels required when called: 5
  6355 ;; This function calls:
  6356 ;;		___bmul
  6357 ;;		_eeprom_at24c04_random_read
  6358 ;;		_putchar
  6359 ;;		_puts
  6360 ;; This function is called by:
  6361 ;;		_main
  6362 ;; This function uses a non-reentrant model
  6363 ;;
  6364                           
  6365     0A65                     _download_log:	
  6366                           ;psect for function _download_log
  6367                           
  6368     0A65                     l4324:	
  6369                           ;incstack = 0
  6370                           ; Regs used in _download_log: [wreg-fsr0h+status,2+status,0+btemp+1+pclath+cstack]
  6371                           
  6372                           
  6373                           ;car_black_box.c: 435:     int index = -1;
  6374     0A65  30FF               	movlw	255
  6375     0A66  1283               	bcf	3,5	;RP0=0, select bank0
  6376     0A67  1303               	bcf	3,6	;RP1=0, select bank0
  6377     0A68  00D3               	movwf	download_log@index
  6378     0A69  30FF               	movlw	255
  6379     0A6A  00D4               	movwf	download_log@index+1
  6380     0A6B                     l4326:
  6381                           
  6382                           ;car_black_box.c: 436:     char log[11];;car_black_box.c: 437:     log[10] = 0;
  6383     0A6B  01CF               	clrf	download_log@log+10
  6384     0A6C                     l4328:
  6385     0A6C                     l4330:
  6386                           
  6387                           ;car_black_box.c: 439:     unsigned char add;;car_black_box.c: 441:     if (event_count 
      +                          == -1)
  6388     0A6C  0A66               	incf	_event_count,w
  6389     0A6D  1D03               	skipz
  6390     0A6E  2A73               	goto	u4151
  6391     0A6F  0A67               	incf	_event_count+1,w
  6392     0A70  1D03               	btfss	3,2
  6393     0A71  2A73               	goto	u4151
  6394     0A72  2A74               	goto	u4150
  6395     0A73                     u4151:
  6396     0A73  2A7E               	goto	l4334
  6397     0A74                     u4150:
  6398     0A74                     l4332:
  6399                           
  6400                           ;car_black_box.c: 442:     {;car_black_box.c: 443:         puts("No logs available");
  6401     0A74  3036               	movlw	low (STR_34| (0+32768))
  6402     0A75  00F3               	movwf	puts@s
  6403     0A76  3087               	movlw	high (STR_34| (0+32768))
  6404     0A77  00F4               	movwf	puts@s+1
  6405     0A78  160A  118A  22A7  120A  158A  	fcall	_puts
  6406                           
  6407                           ;car_black_box.c: 444:     }
  6408     0A7D  2B80               	goto	l423
  6409     0A7E                     l4334:
  6410                           
  6411                           ;car_black_box.c: 446:     {;car_black_box.c: 447:         puts("Logs :");
  6412     0A7E  30C0               	movlw	low (STR_35| (0+32768))
  6413     0A7F  00F3               	movwf	puts@s
  6414     0A80  3088               	movlw	high (STR_35| (0+32768))
  6415     0A81  00F4               	movwf	puts@s+1
  6416     0A82  160A  118A  22A7  120A  158A  	fcall	_puts
  6417     0A87                     l4336:
  6418                           
  6419                           ;car_black_box.c: 448:         putchar('\n');
  6420     0A87  300A               	movlw	10
  6421     0A88  160A  118A  215D  120A  158A  	fcall	_putchar
  6422     0A8D                     l4338:
  6423                           
  6424                           ;car_black_box.c: 449:         puts("#     Time        Event       Speed");
  6425     0A8D  3000               	movlw	low (STR_36| (0+32768))
  6426     0A8E  00F3               	movwf	puts@s
  6427     0A8F  3087               	movlw	high (STR_36| (0+32768))
  6428     0A90  00F4               	movwf	puts@s+1
  6429     0A91  160A  118A  22A7  120A  158A  	fcall	_puts
  6430                           
  6431                           ;car_black_box.c: 450:         putchar('\n');
  6432     0A96  300A               	movlw	10
  6433     0A97  160A  118A  215D  120A  158A  	fcall	_putchar
  6434                           
  6435                           ;car_black_box.c: 451:         putchar('\r');
  6436     0A9C  300D               	movlw	13
  6437     0A9D  160A  118A  215D  120A  158A  	fcall	_putchar
  6438                           
  6439                           ;car_black_box.c: 453:         while (index < event_count)
  6440     0AA2  2B70               	goto	l4390
  6441     0AA3                     l4340:
  6442                           
  6443                           ;car_black_box.c: 454:         {;car_black_box.c: 455:             position = index + 1;
  6444     0AA3  1283               	bcf	3,5	;RP0=0, select bank0
  6445     0AA4  1303               	bcf	3,6	;RP1=0, select bank0
  6446     0AA5  0853               	movf	download_log@index,w
  6447     0AA6  3E01               	addlw	1
  6448     0AA7  00D1               	movwf	download_log@position
  6449     0AA8  0854               	movf	download_log@index+1,w
  6450     0AA9  1803               	skipnc
  6451     0AAA  3E01               	addlw	1
  6452     0AAB  3E00               	addlw	0
  6453     0AAC  00D2               	movwf	download_log@position+1
  6454     0AAD                     l4342:
  6455                           
  6456                           ;car_black_box.c: 456:             index++;
  6457     0AAD  3001               	movlw	1
  6458     0AAE  07D3               	addwf	download_log@index,f
  6459     0AAF  1803               	skipnc
  6460     0AB0  0AD4               	incf	download_log@index+1,f
  6461     0AB1  3000               	movlw	0
  6462     0AB2  07D4               	addwf	download_log@index+1,f
  6463     0AB3                     l4344:
  6464                           
  6465                           ;car_black_box.c: 458:             for (int i = 0; i < 10; i++)
  6466     0AB3  01D5               	clrf	download_log@i
  6467     0AB4  01D6               	clrf	download_log@i+1
  6468     0AB5                     l4350:
  6469                           
  6470                           ;car_black_box.c: 459:             {;car_black_box.c: 461:                 add = positio
      +                          n * 10 + 5 + i;
  6471     0AB5  300A               	movlw	10
  6472     0AB6  00F2               	movwf	___bmul@multiplicand
  6473     0AB7  1283               	bcf	3,5	;RP0=0, select bank0
  6474     0AB8  1303               	bcf	3,6	;RP1=0, select bank0
  6475     0AB9  0851               	movf	download_log@position,w
  6476     0ABA  160A  118A  21EB  120A  158A  	fcall	___bmul
  6477     0ABF  1283               	bcf	3,5	;RP0=0, select bank0
  6478     0AC0  1303               	bcf	3,6	;RP1=0, select bank0
  6479     0AC1  0755               	addwf	download_log@i,w
  6480     0AC2  3E05               	addlw	5
  6481     0AC3  00D0               	movwf	download_log@add
  6482     0AC4                     l4352:
  6483                           
  6484                           ;car_black_box.c: 462:                 log[i] = eeprom_at24c04_random_read(add);
  6485     0AC4  0855               	movf	download_log@i,w
  6486     0AC5  3E45               	addlw	(low (download_log@log| 0))& (0+255)
  6487     0AC6  0084               	movwf	4
  6488     0AC7  0850               	movf	download_log@add,w
  6489     0AC8  160A  118A  234A  120A  158A  	fcall	_eeprom_at24c04_random_read
  6490     0ACD  1383               	bcf	3,7	;select IRP bank0
  6491     0ACE  0080               	movwf	0
  6492     0ACF                     l4354:
  6493                           
  6494                           ;car_black_box.c: 463:             }
  6495     0ACF  3001               	movlw	1
  6496     0AD0  1283               	bcf	3,5	;RP0=0, select bank0
  6497     0AD1  1303               	bcf	3,6	;RP1=0, select bank0
  6498     0AD2  07D5               	addwf	download_log@i,f
  6499     0AD3  1803               	skipnc
  6500     0AD4  0AD6               	incf	download_log@i+1,f
  6501     0AD5  3000               	movlw	0
  6502     0AD6  07D6               	addwf	download_log@i+1,f
  6503     0AD7                     l4356:
  6504     0AD7  0856               	movf	download_log@i+1,w
  6505     0AD8  3A80               	xorlw	128
  6506     0AD9  00FF               	movwf	btemp+1
  6507     0ADA  3080               	movlw	128
  6508     0ADB  027F               	subwf	btemp+1,w
  6509     0ADC  1D03               	skipz
  6510     0ADD  2AE0               	goto	u4165
  6511     0ADE  300A               	movlw	10
  6512     0ADF  0255               	subwf	download_log@i,w
  6513     0AE0                     u4165:
  6514     0AE0  1C03               	skipc
  6515     0AE1  2AE3               	goto	u4161
  6516     0AE2  2AE4               	goto	u4160
  6517     0AE3                     u4161:
  6518     0AE3  2AB5               	goto	l4350
  6519     0AE4                     u4160:
  6520     0AE4                     l4358:
  6521                           
  6522                           ;car_black_box.c: 468:             putchar(index + '0');
  6523     0AE4  1283               	bcf	3,5	;RP0=0, select bank0
  6524     0AE5  1303               	bcf	3,6	;RP1=0, select bank0
  6525     0AE6  0853               	movf	download_log@index,w
  6526     0AE7  3E30               	addlw	48
  6527     0AE8  160A  118A  215D  120A  158A  	fcall	_putchar
  6528     0AED                     l4360:
  6529                           
  6530                           ;car_black_box.c: 469:             puts("   ");
  6531     0AED  3032               	movlw	low ((STR_43+14)| (0+32768))
  6532     0AEE  00F3               	movwf	puts@s
  6533     0AEF  3087               	movlw	high ((STR_43+14)| (0+32768))
  6534     0AF0  00F4               	movwf	puts@s+1
  6535     0AF1  160A  118A  22A7  120A  158A  	fcall	_puts
  6536     0AF6                     l4362:
  6537                           
  6538                           ;car_black_box.c: 472:             putchar(log[0]);
  6539     0AF6  1283               	bcf	3,5	;RP0=0, select bank0
  6540     0AF7  1303               	bcf	3,6	;RP1=0, select bank0
  6541     0AF8  0845               	movf	download_log@log,w
  6542     0AF9  160A  118A  215D  120A  158A  	fcall	_putchar
  6543     0AFE                     l4364:
  6544                           
  6545                           ;car_black_box.c: 473:             putchar(log[1]);
  6546     0AFE  1283               	bcf	3,5	;RP0=0, select bank0
  6547     0AFF  1303               	bcf	3,6	;RP1=0, select bank0
  6548     0B00  0846               	movf	download_log@log+1,w
  6549     0B01  160A  118A  215D  120A  158A  	fcall	_putchar
  6550     0B06                     l4366:
  6551                           
  6552                           ;car_black_box.c: 474:             putchar(':');
  6553     0B06  303A               	movlw	58
  6554     0B07  160A  118A  215D  120A  158A  	fcall	_putchar
  6555     0B0C                     l4368:
  6556                           
  6557                           ;car_black_box.c: 477:             putchar(log[2]);
  6558     0B0C  1283               	bcf	3,5	;RP0=0, select bank0
  6559     0B0D  1303               	bcf	3,6	;RP1=0, select bank0
  6560     0B0E  0847               	movf	download_log@log+2,w
  6561     0B0F  160A  118A  215D  120A  158A  	fcall	_putchar
  6562     0B14                     l4370:
  6563                           
  6564                           ;car_black_box.c: 478:             putchar(log[3]);
  6565     0B14  1283               	bcf	3,5	;RP0=0, select bank0
  6566     0B15  1303               	bcf	3,6	;RP1=0, select bank0
  6567     0B16  0848               	movf	download_log@log+3,w
  6568     0B17  160A  118A  215D  120A  158A  	fcall	_putchar
  6569     0B1C                     l4372:
  6570                           
  6571                           ;car_black_box.c: 479:             putchar(':');
  6572     0B1C  303A               	movlw	58
  6573     0B1D  160A  118A  215D  120A  158A  	fcall	_putchar
  6574     0B22                     l4374:
  6575                           
  6576                           ;car_black_box.c: 482:             putchar(log[4]);
  6577     0B22  1283               	bcf	3,5	;RP0=0, select bank0
  6578     0B23  1303               	bcf	3,6	;RP1=0, select bank0
  6579     0B24  0849               	movf	download_log@log+4,w
  6580     0B25  160A  118A  215D  120A  158A  	fcall	_putchar
  6581     0B2A                     l4376:
  6582                           
  6583                           ;car_black_box.c: 483:             putchar(log[5]);
  6584     0B2A  1283               	bcf	3,5	;RP0=0, select bank0
  6585     0B2B  1303               	bcf	3,6	;RP1=0, select bank0
  6586     0B2C  084A               	movf	download_log@log+5,w
  6587     0B2D  160A  118A  215D  120A  158A  	fcall	_putchar
  6588     0B32                     l4378:
  6589                           
  6590                           ;car_black_box.c: 484:             puts("      ");
  6591     0B32  302F               	movlw	low ((STR_43+11)| (0+32768))
  6592     0B33  00F3               	movwf	puts@s
  6593     0B34  3087               	movlw	high ((STR_43+11)| (0+32768))
  6594     0B35  00F4               	movwf	puts@s+1
  6595     0B36  160A  118A  22A7  120A  158A  	fcall	_puts
  6596                           
  6597                           ;car_black_box.c: 487:             putchar(log[6]);
  6598     0B3B  1283               	bcf	3,5	;RP0=0, select bank0
  6599     0B3C  1303               	bcf	3,6	;RP1=0, select bank0
  6600     0B3D  084B               	movf	download_log@log+6,w
  6601     0B3E  160A  118A  215D  120A  158A  	fcall	_putchar
  6602                           
  6603                           ;car_black_box.c: 488:             putchar(log[7]);
  6604     0B43  1283               	bcf	3,5	;RP0=0, select bank0
  6605     0B44  1303               	bcf	3,6	;RP1=0, select bank0
  6606     0B45  084C               	movf	download_log@log+7,w
  6607     0B46  160A  118A  215D  120A  158A  	fcall	_putchar
  6608     0B4B                     l4380:
  6609                           
  6610                           ;car_black_box.c: 489:             puts("            ");
  6611     0B4B  3029               	movlw	low ((STR_43+5)| (0+32768))
  6612     0B4C  00F3               	movwf	puts@s
  6613     0B4D  3087               	movlw	high ((STR_43+5)| (0+32768))
  6614     0B4E  00F4               	movwf	puts@s+1
  6615     0B4F  160A  118A  22A7  120A  158A  	fcall	_puts
  6616     0B54                     l4382:
  6617                           
  6618                           ;car_black_box.c: 492:             putchar(log[8]);
  6619     0B54  1283               	bcf	3,5	;RP0=0, select bank0
  6620     0B55  1303               	bcf	3,6	;RP1=0, select bank0
  6621     0B56  084D               	movf	download_log@log+8,w
  6622     0B57  160A  118A  215D  120A  158A  	fcall	_putchar
  6623     0B5C                     l4384:
  6624                           
  6625                           ;car_black_box.c: 493:             putchar(log[9]);
  6626     0B5C  1283               	bcf	3,5	;RP0=0, select bank0
  6627     0B5D  1303               	bcf	3,6	;RP1=0, select bank0
  6628     0B5E  084E               	movf	download_log@log+9,w
  6629     0B5F  160A  118A  215D  120A  158A  	fcall	_putchar
  6630     0B64                     l4386:
  6631                           
  6632                           ;car_black_box.c: 494:             putchar('\n');
  6633     0B64  300A               	movlw	10
  6634     0B65  160A  118A  215D  120A  158A  	fcall	_putchar
  6635     0B6A                     l4388:
  6636                           
  6637                           ;car_black_box.c: 495:             putchar('\r');
  6638     0B6A  300D               	movlw	13
  6639     0B6B  160A  118A  215D  120A  158A  	fcall	_putchar
  6640     0B70                     l4390:
  6641                           
  6642                           ;car_black_box.c: 453:         while (index < event_count)
  6643     0B70  1283               	bcf	3,5	;RP0=0, select bank0
  6644     0B71  1303               	bcf	3,6	;RP1=0, select bank0
  6645     0B72  0854               	movf	download_log@index+1,w
  6646     0B73  3A80               	xorlw	128
  6647     0B74  00F6               	movwf	??_download_log
  6648     0B75  0867               	movf	_event_count+1,w
  6649     0B76  3A80               	xorlw	128
  6650     0B77  0276               	subwf	??_download_log,w
  6651     0B78  1D03               	skipz
  6652     0B79  2B7C               	goto	u4175
  6653     0B7A  0866               	movf	_event_count,w
  6654     0B7B  0253               	subwf	download_log@index,w
  6655     0B7C                     u4175:
  6656     0B7C  1C03               	skipc
  6657     0B7D  2B7F               	goto	u4171
  6658     0B7E  2B80               	goto	u4170
  6659     0B7F                     u4171:
  6660     0B7F  2AA3               	goto	l4340
  6661     0B80                     u4170:
  6662     0B80                     l423:
  6663     0B80  0008               	return
  6664     0B81                     __end_of_download_log:
  6665                           
  6666                           	psect	text21
  6667     12A7                     __ptext21:	
  6668 ;; *************** function _puts *****************
  6669 ;; Defined at:
  6670 ;;		line 46 in file "uart.c"
  6671 ;; Parameters:    Size  Location     Type
  6672 ;;  s               2    3[COMMON] PTR const unsigned char 
  6673 ;;		 -> STR_39(13), STR_38(7), STR_37(4), STR_36(36), 
  6674 ;;		 -> STR_35(7), STR_34(18), 
  6675 ;; Auto vars:     Size  Location     Type
  6676 ;;		None
  6677 ;; Return value:  Size  Location     Type
  6678 ;;                  1    wreg      void 
  6679 ;; Registers used:
  6680 ;;		wreg, fsr0l, fsr0h, status,2, status,0, btemp+1, pclath, cstack
  6681 ;; Tracked objects:
  6682 ;;		On entry : 0/0
  6683 ;;		On exit  : 0/0
  6684 ;;		Unchanged: 0/0
  6685 ;; Data sizes:     COMMON   BANK0   BANK1   BANK3   BANK2
  6686 ;;      Params:         2       0       0       0       0
  6687 ;;      Locals:         0       0       0       0       0
  6688 ;;      Temps:          0       0       0       0       0
  6689 ;;      Totals:         2       0       0       0       0
  6690 ;;Total ram usage:        2 bytes
  6691 ;; Hardware stack levels used: 1
  6692 ;; Hardware stack levels required when called: 2
  6693 ;; This function calls:
  6694 ;;		_putchar
  6695 ;; This function is called by:
  6696 ;;		_download_log
  6697 ;; This function uses a non-reentrant model
  6698 ;;
  6699                           
  6700     12A7                     _puts:	
  6701                           ;psect for function _puts
  6702                           
  6703     12A7                     l4074:	
  6704                           ;incstack = 0
  6705                           ; Regs used in _puts: [wreg-fsr0h+status,2+status,0+btemp+1+pclath+cstack]
  6706                           
  6707                           
  6708                           ;uart.c: 46: void puts(const char *s);uart.c: 47: {;uart.c: 48:     while (*s)
  6709     12A7  2ABC               	goto	l4080
  6710     12A8                     l4076:
  6711                           
  6712                           ;uart.c: 49:     {;uart.c: 50:         putchar(*s++);
  6713     12A8  0874               	movf	puts@s+1,w
  6714     12A9  00FF               	movwf	btemp+1
  6715     12AA  0873               	movf	puts@s,w
  6716     12AB  0084               	movwf	4
  6717     12AC  160A  118A  2000  160A  118A  	fcall	stringtab
  6718     12B1  160A  118A  215D  160A  118A  	fcall	_putchar
  6719     12B6                     l4078:
  6720     12B6  3001               	movlw	1
  6721     12B7  07F3               	addwf	puts@s,f
  6722     12B8  1803               	skipnc
  6723     12B9  0AF4               	incf	puts@s+1,f
  6724     12BA  3000               	movlw	0
  6725     12BB  07F4               	addwf	puts@s+1,f
  6726     12BC                     l4080:
  6727                           
  6728                           ;uart.c: 48:     while (*s)
  6729     12BC  0874               	movf	puts@s+1,w
  6730     12BD  1283               	bcf	3,5	;RP0=0, select bank0
  6731     12BE  1303               	bcf	3,6	;RP1=0, select bank0
  6732     12BF  00FF               	movwf	btemp+1
  6733     12C0  0873               	movf	puts@s,w
  6734     12C1  0084               	movwf	4
  6735     12C2  160A  118A  2000  160A  118A  	fcall	stringtab
  6736     12C7  3A00               	xorlw	0
  6737     12C8  1D03               	skipz
  6738     12C9  2ACB               	goto	u3631
  6739     12CA  2ACC               	goto	u3630
  6740     12CB                     u3631:
  6741     12CB  2AA8               	goto	l4076
  6742     12CC                     u3630:
  6743     12CC                     l551:
  6744     12CC  0008               	return
  6745     12CD                     __end_of_puts:
  6746                           
  6747                           	psect	text22
  6748     115D                     __ptext22:	
  6749 ;; *************** function _putchar *****************
  6750 ;; Defined at:
  6751 ;;		line 31 in file "uart.c"
  6752 ;; Parameters:    Size  Location     Type
  6753 ;;  data            1    wreg     unsigned char 
  6754 ;; Auto vars:     Size  Location     Type
  6755 ;;  data            1    2[COMMON] unsigned char 
  6756 ;; Return value:  Size  Location     Type
  6757 ;;                  1    wreg      void 
  6758 ;; Registers used:
  6759 ;;		wreg
  6760 ;; Tracked objects:
  6761 ;;		On entry : 0/0
  6762 ;;		On exit  : 0/0
  6763 ;;		Unchanged: 0/0
  6764 ;; Data sizes:     COMMON   BANK0   BANK1   BANK3   BANK2
  6765 ;;      Params:         0       0       0       0       0
  6766 ;;      Locals:         1       0       0       0       0
  6767 ;;      Temps:          0       0       0       0       0
  6768 ;;      Totals:         1       0       0       0       0
  6769 ;;Total ram usage:        1 bytes
  6770 ;; Hardware stack levels used: 1
  6771 ;; Hardware stack levels required when called: 1
  6772 ;; This function calls:
  6773 ;;		Nothing
  6774 ;; This function is called by:
  6775 ;;		_download_log
  6776 ;;		_puts
  6777 ;; This function uses a non-reentrant model
  6778 ;;
  6779                           
  6780     115D                     _putchar:	
  6781                           ;psect for function _putchar
  6782                           
  6783                           
  6784                           ;incstack = 0
  6785                           ; Regs used in _putchar: [wreg]
  6786                           ;putchar@data stored from wreg
  6787     115D  00F2               	movwf	putchar@data
  6788     115E                     l3908:
  6789                           
  6790                           ;uart.c: 31: void putchar(unsigned char data);uart.c: 32: {;uart.c: 34:     TXREG = data
      +                          ;
  6791     115E  0872               	movf	putchar@data,w
  6792     115F  1283               	bcf	3,5	;RP0=0, select bank0
  6793     1160  1303               	bcf	3,6	;RP1=0, select bank0
  6794     1161  0099               	movwf	25	;volatile
  6795     1162                     l543:	
  6796                           ;uart.c: 40:     } while (TXIF != 1);
  6797                           
  6798     1162  1E0C               	btfss	12,4	;volatile
  6799     1163  2965               	goto	u3401
  6800     1164  2966               	goto	u3400
  6801     1165                     u3401:
  6802     1165  2962               	goto	l543
  6803     1166                     u3400:
  6804     1166                     l544:
  6805                           
  6806                           ;uart.c: 43:     TXIF = 0;
  6807     1166  120C               	bcf	12,4	;volatile
  6808     1167                     l545:
  6809     1167  0008               	return
  6810     1168                     __end_of_putchar:
  6811                           
  6812                           	psect	text23
  6813     134A                     __ptext23:	
  6814 ;; *************** function _eeprom_at24c04_random_read *****************
  6815 ;; Defined at:
  6816 ;;		line 5 in file "at24c04.c"
  6817 ;; Parameters:    Size  Location     Type
  6818 ;;  memory_loc      1    wreg     unsigned char 
  6819 ;; Auto vars:     Size  Location     Type
  6820 ;;  memory_loc      1    4[COMMON] unsigned char 
  6821 ;;  received_dat    1    5[COMMON] unsigned char 
  6822 ;; Return value:  Size  Location     Type
  6823 ;;                  1    wreg      unsigned char 
  6824 ;; Registers used:
  6825 ;;		wreg, status,2, status,0, pclath, cstack
  6826 ;; Tracked objects:
  6827 ;;		On entry : 0/0
  6828 ;;		On exit  : 0/0
  6829 ;;		Unchanged: 0/0
  6830 ;; Data sizes:     COMMON   BANK0   BANK1   BANK3   BANK2
  6831 ;;      Params:         0       0       0       0       0
  6832 ;;      Locals:         2       0       0       0       0
  6833 ;;      Temps:          0       0       0       0       0
  6834 ;;      Totals:         2       0       0       0       0
  6835 ;;Total ram usage:        2 bytes
  6836 ;; Hardware stack levels used: 1
  6837 ;; Hardware stack levels required when called: 4
  6838 ;; This function calls:
  6839 ;;		_i2c_read
  6840 ;;		_i2c_rep_start
  6841 ;;		_i2c_start
  6842 ;;		_i2c_stop
  6843 ;;		_i2c_write
  6844 ;; This function is called by:
  6845 ;;		_login
  6846 ;;		_view_log
  6847 ;;		_download_log
  6848 ;; This function uses a non-reentrant model
  6849 ;;
  6850                           
  6851     134A                     _eeprom_at24c04_random_read:	
  6852                           ;psect for function _eeprom_at24c04_random_read
  6853                           
  6854                           
  6855                           ;incstack = 0
  6856                           ; Regs used in _eeprom_at24c04_random_read: [wreg+status,2+status,0+pclath+cstack]
  6857                           ;eeprom_at24c04_random_read@memory_loc stored from wreg
  6858     134A  00F4               	movwf	eeprom_at24c04_random_read@memory_loc
  6859     134B                     l4000:
  6860     134B                     l4002:
  6861                           
  6862                           ;at24c04.c: 9:     i2c_start();
  6863     134B  160A  118A  2135  160A  118A  	fcall	_i2c_start
  6864     1350                     l4004:
  6865                           
  6866                           ;at24c04.c: 10:     i2c_write(0xA0);
  6867     1350  30A0               	movlw	160
  6868     1351  160A  118A  2147  160A  118A  	fcall	_i2c_write
  6869     1356                     l4006:
  6870                           
  6871                           ;at24c04.c: 11:     i2c_write(memory_loc);
  6872     1356  0874               	movf	eeprom_at24c04_random_read@memory_loc,w
  6873     1357  160A  118A  2147  160A  118A  	fcall	_i2c_write
  6874     135C                     l4008:
  6875                           
  6876                           ;at24c04.c: 12:     i2c_rep_start();
  6877     135C  160A  118A  2152  160A  118A  	fcall	_i2c_rep_start
  6878     1361                     l4010:
  6879                           
  6880                           ;at24c04.c: 13:     i2c_write(0xA1);
  6881     1361  30A1               	movlw	161
  6882     1362  160A  118A  2147  160A  118A  	fcall	_i2c_write
  6883     1367                     l4012:
  6884                           
  6885                           ;at24c04.c: 14:     received_data = i2c_read(0);
  6886     1367  3000               	movlw	0
  6887     1368  160A  118A  223E  160A  118A  	fcall	_i2c_read
  6888     136D  00F5               	movwf	eeprom_at24c04_random_read@received_data
  6889     136E                     l4014:
  6890                           
  6891                           ;at24c04.c: 15:     i2c_stop();
  6892     136E  160A  118A  213E  160A  118A  	fcall	_i2c_stop
  6893     1373                     l4016:
  6894                           
  6895                           ;at24c04.c: 17:     return received_data;
  6896     1373  0875               	movf	eeprom_at24c04_random_read@received_data,w
  6897     1374                     l290:
  6898     1374  0008               	return
  6899     1375                     __end_of_eeprom_at24c04_random_read:
  6900                           
  6901                           	psect	text24
  6902     11EB                     __ptext24:	
  6903 ;; *************** function ___bmul *****************
  6904 ;; Defined at:
  6905 ;;		line 4 in file "C:\Program Files\Microchip\xc8\v2.46\pic\sources\c99\common\Umul8.c"
  6906 ;; Parameters:    Size  Location     Type
  6907 ;;  multiplier      1    wreg     unsigned char 
  6908 ;;  multiplicand    1    2[COMMON] unsigned char 
  6909 ;; Auto vars:     Size  Location     Type
  6910 ;;  multiplier      1    4[COMMON] unsigned char 
  6911 ;;  product         1    3[COMMON] unsigned char 
  6912 ;; Return value:  Size  Location     Type
  6913 ;;                  1    wreg      unsigned char 
  6914 ;; Registers used:
  6915 ;;		wreg, status,2, status,0, btemp+1
  6916 ;; Tracked objects:
  6917 ;;		On entry : 0/0
  6918 ;;		On exit  : 0/0
  6919 ;;		Unchanged: 0/0
  6920 ;; Data sizes:     COMMON   BANK0   BANK1   BANK3   BANK2
  6921 ;;      Params:         1       0       0       0       0
  6922 ;;      Locals:         2       0       0       0       0
  6923 ;;      Temps:          0       0       0       0       0
  6924 ;;      Totals:         3       0       0       0       0
  6925 ;;Total ram usage:        3 bytes
  6926 ;; Hardware stack levels used: 1
  6927 ;; Hardware stack levels required when called: 1
  6928 ;; This function calls:
  6929 ;;		Nothing
  6930 ;; This function is called by:
  6931 ;;		_log_event
  6932 ;;		_view_log
  6933 ;;		_download_log
  6934 ;; This function uses a non-reentrant model
  6935 ;;
  6936                           
  6937     11EB                     ___bmul:	
  6938                           ;psect for function ___bmul
  6939                           
  6940                           
  6941                           ;incstack = 0
  6942                           ; Regs used in ___bmul: [wreg+status,2+status,0+btemp+1]
  6943                           ;___bmul@multiplier stored from wreg
  6944     11EB  00F4               	movwf	___bmul@multiplier
  6945     11EC                     l3910:
  6946     11EC  01F3               	clrf	___bmul@product
  6947     11ED                     l3912:
  6948     11ED  1C74               	btfss	___bmul@multiplier,0
  6949     11EE  29F0               	goto	u3411
  6950     11EF  29F1               	goto	u3410
  6951     11F0                     u3411:
  6952     11F0  29F5               	goto	l3916
  6953     11F1                     u3410:
  6954     11F1                     l3914:
  6955     11F1  0872               	movf	___bmul@multiplicand,w
  6956     11F2  00FF               	movwf	btemp+1
  6957     11F3  087F               	movf	btemp+1,w
  6958     11F4  07F3               	addwf	___bmul@product,f
  6959     11F5                     l3916:
  6960     11F5  1003               	clrc
  6961     11F6  0DF2               	rlf	___bmul@multiplicand,f
  6962     11F7                     l3918:
  6963     11F7  1003               	clrc
  6964     11F8  0CF4               	rrf	___bmul@multiplier,f
  6965     11F9                     l3920:
  6966     11F9  0874               	movf	___bmul@multiplier,w
  6967     11FA  1D03               	btfss	3,2
  6968     11FB  29FD               	goto	u3421
  6969     11FC  29FE               	goto	u3420
  6970     11FD                     u3421:
  6971     11FD  29ED               	goto	l3912
  6972     11FE                     u3420:
  6973     11FE                     l3922:
  6974     11FE  0873               	movf	___bmul@product,w
  6975     11FF                     l663:
  6976     11FF  0008               	return
  6977     1200                     __end_of___bmul:
  6978                           
  6979                           	psect	text25
  6980     16A1                     __ptext25:	
  6981 ;; *************** function _display_dashboard *****************
  6982 ;; Defined at:
  6983 ;;		line 72 in file "car_black_box.c"
  6984 ;; Parameters:    Size  Location     Type
  6985 ;;  event           1    wreg     PTR unsigned char 
  6986 ;;		 -> main@event(3), 
  6987 ;;  speed           1   10[BANK0 ] unsigned char 
  6988 ;; Auto vars:     Size  Location     Type
  6989 ;;  event           1   13[BANK0 ] PTR unsigned char 
  6990 ;;		 -> main@event(3), 
  6991 ;; Return value:  Size  Location     Type
  6992 ;;                  1    wreg      void 
  6993 ;; Registers used:
  6994 ;;		wreg, fsr0l, fsr0h, status,2, status,0, btemp+1, pclath, cstack
  6995 ;; Tracked objects:
  6996 ;;		On entry : 0/0
  6997 ;;		On exit  : 0/0
  6998 ;;		Unchanged: 0/0
  6999 ;; Data sizes:     COMMON   BANK0   BANK1   BANK3   BANK2
  7000 ;;      Params:         0       1       0       0       0
  7001 ;;      Locals:         0       1       0       0       0
  7002 ;;      Temps:          0       2       0       0       0
  7003 ;;      Totals:         0       4       0       0       0
  7004 ;;Total ram usage:        4 bytes
  7005 ;; Hardware stack levels used: 1
  7006 ;; Hardware stack levels required when called: 7
  7007 ;; This function calls:
  7008 ;;		___awdiv
  7009 ;;		___awmod
  7010 ;;		_clcd_print
  7011 ;;		_clcd_putch
  7012 ;;		_display_time
  7013 ;; This function is called by:
  7014 ;;		_main
  7015 ;; This function uses a non-reentrant model
  7016 ;;
  7017                           
  7018     16A1                     _display_dashboard:	
  7019                           ;psect for function _display_dashboard
  7020                           
  7021                           
  7022                           ;incstack = 0
  7023                           ; Regs used in _display_dashboard: [wreg-fsr0h+status,2+status,0+btemp+1+pclath+cstack]
  7024                           ;display_dashboard@event stored from wreg
  7025     16A1  1283               	bcf	3,5	;RP0=0, select bank0
  7026     16A2  1303               	bcf	3,6	;RP1=0, select bank0
  7027     16A3  00D2               	movwf	display_dashboard@event
  7028     16A4                     l4392:
  7029                           
  7030                           ;car_black_box.c: 72: void display_dashboard(unsigned char event[], unsigned char speed)
      +                          ;car_black_box.c: 73: {;car_black_box.c: 74:     clcd_print("  TIME     E  SP", (0x80 + 
      +                          0));
  7031     16A4  307B               	movlw	low (STR_22| (0+32768))
  7032     16A5  00F6               	movwf	clcd_print@str
  7033     16A6  3087               	movlw	high (STR_22| (0+32768))
  7034     16A7  00F7               	movwf	clcd_print@str+1
  7035     16A8  3080               	movlw	128
  7036     16A9  00F8               	movwf	clcd_print@addr
  7037     16AA  160A  118A  23A2  160A  118A  	fcall	_clcd_print
  7038     16AF                     l4394:
  7039                           
  7040                           ;car_black_box.c: 77:     display_time();
  7041     16AF  160A  118A  264B  160A  118A  	fcall	_display_time
  7042     16B4                     l4396:
  7043                           
  7044                           ;car_black_box.c: 80:     clcd_print(event, (0xC0 + 11));
  7045     16B4  1283               	bcf	3,5	;RP0=0, select bank0
  7046     16B5  1303               	bcf	3,6	;RP1=0, select bank0
  7047     16B6  0852               	movf	display_dashboard@event,w
  7048     16B7  00F6               	movwf	clcd_print@str
  7049     16B8  3000               	movlw	0
  7050     16B9  00F7               	movwf	clcd_print@str+1
  7051     16BA  30CB               	movlw	203
  7052     16BB  00F8               	movwf	clcd_print@addr
  7053     16BC  160A  118A  23A2  160A  118A  	fcall	_clcd_print
  7054     16C1                     l4398:
  7055                           
  7056                           ;car_black_box.c: 83:     clcd_putch(speed / 10 + '0', (0xC0 + 14));
  7057     16C1  30CE               	movlw	206
  7058     16C2  1283               	bcf	3,5	;RP0=0, select bank0
  7059     16C3  1303               	bcf	3,6	;RP1=0, select bank0
  7060     16C4  00CD               	movwf	clcd_putch@addr
  7061     16C5  300A               	movlw	10
  7062     16C6  00F2               	movwf	___awdiv@divisor
  7063     16C7  3000               	movlw	0
  7064     16C8  00F3               	movwf	___awdiv@divisor+1
  7065     16C9  084F               	movf	display_dashboard@speed,w
  7066     16CA  00D0               	movwf	??_display_dashboard
  7067     16CB  01D1               	clrf	??_display_dashboard+1
  7068     16CC  0850               	movf	??_display_dashboard,w
  7069     16CD  00F4               	movwf	___awdiv@dividend
  7070     16CE  0851               	movf	??_display_dashboard+1,w
  7071     16CF  00F5               	movwf	___awdiv@dividend+1
  7072     16D0  120A  158A  210D  160A  118A  	fcall	___awdiv
  7073     16D5  0872               	movf	?___awdiv,w
  7074     16D6  3E30               	addlw	48
  7075     16D7  160A  118A  21D6  160A  118A  	fcall	_clcd_putch
  7076     16DC                     l4400:
  7077                           
  7078                           ;car_black_box.c: 84:     clcd_putch(speed % 10 + '0', (0xC0 + 15));
  7079     16DC  30CF               	movlw	207
  7080     16DD  1283               	bcf	3,5	;RP0=0, select bank0
  7081     16DE  1303               	bcf	3,6	;RP1=0, select bank0
  7082     16DF  00CD               	movwf	clcd_putch@addr
  7083     16E0  300A               	movlw	10
  7084     16E1  00F2               	movwf	___awmod@divisor
  7085     16E2  3000               	movlw	0
  7086     16E3  00F3               	movwf	___awmod@divisor+1
  7087     16E4  084F               	movf	display_dashboard@speed,w
  7088     16E5  00D0               	movwf	??_display_dashboard
  7089     16E6  01D1               	clrf	??_display_dashboard+1
  7090     16E7  0850               	movf	??_display_dashboard,w
  7091     16E8  00F4               	movwf	___awmod@dividend
  7092     16E9  0851               	movf	??_display_dashboard+1,w
  7093     16EA  00F5               	movwf	___awmod@dividend+1
  7094     16EB  160A  118A  27A7  160A  118A  	fcall	___awmod
  7095     16F0  0872               	movf	?___awmod,w
  7096     16F1  3E30               	addlw	48
  7097     16F2  160A  118A  21D6  160A  118A  	fcall	_clcd_putch
  7098     16F7                     l348:
  7099     16F7  0008               	return
  7100     16F8                     __end_of_display_dashboard:
  7101                           
  7102                           	psect	text26
  7103     164B                     __ptext26:	
  7104 ;; *************** function _display_time *****************
  7105 ;; Defined at:
  7106 ;;		line 47 in file "car_black_box.c"
  7107 ;; Parameters:    Size  Location     Type
  7108 ;;		None
  7109 ;; Auto vars:     Size  Location     Type
  7110 ;;		None
  7111 ;; Return value:  Size  Location     Type
  7112 ;;                  1    wreg      void 
  7113 ;; Registers used:
  7114 ;;		wreg, status,2, status,0, pclath, cstack
  7115 ;; Tracked objects:
  7116 ;;		On entry : 0/0
  7117 ;;		On exit  : 0/0
  7118 ;;		Unchanged: 0/0
  7119 ;; Data sizes:     COMMON   BANK0   BANK1   BANK3   BANK2
  7120 ;;      Params:         0       0       0       0       0
  7121 ;;      Locals:         0       0       0       0       0
  7122 ;;      Temps:          0       0       0       0       0
  7123 ;;      Totals:         0       0       0       0       0
  7124 ;;Total ram usage:        0 bytes
  7125 ;; Hardware stack levels used: 1
  7126 ;; Hardware stack levels required when called: 6
  7127 ;; This function calls:
  7128 ;;		_clcd_putch
  7129 ;;		_get_time
  7130 ;; This function is called by:
  7131 ;;		_display_dashboard
  7132 ;; This function uses a non-reentrant model
  7133 ;;
  7134                           
  7135     164B                     _display_time:	
  7136                           ;psect for function _display_time
  7137                           
  7138     164B                     l4020:	
  7139                           ;incstack = 0
  7140                           ; Regs used in _display_time: [wreg+status,2+status,0+pclath+cstack]
  7141                           
  7142                           
  7143                           ;car_black_box.c: 49:     get_time();
  7144     164B  160A  118A  25AE  160A  118A  	fcall	_get_time
  7145                           
  7146                           ;car_black_box.c: 54:     clcd_putch(time[0], (0xC0 + 2));
  7147     1650  30C2               	movlw	194
  7148     1651  1283               	bcf	3,5	;RP0=0, select bank0
  7149     1652  1303               	bcf	3,6	;RP1=0, select bank0
  7150     1653  00CD               	movwf	clcd_putch@addr
  7151     1654  083E               	movf	_time,w
  7152     1655  160A  118A  21D6  160A  118A  	fcall	_clcd_putch
  7153                           
  7154                           ;car_black_box.c: 55:     clcd_putch(time[1], (0xC0 + 3));
  7155     165A  30C3               	movlw	195
  7156     165B  1283               	bcf	3,5	;RP0=0, select bank0
  7157     165C  1303               	bcf	3,6	;RP1=0, select bank0
  7158     165D  00CD               	movwf	clcd_putch@addr
  7159     165E  083F               	movf	_time+1,w
  7160     165F  160A  118A  21D6  160A  118A  	fcall	_clcd_putch
  7161                           
  7162                           ;car_black_box.c: 56:     clcd_putch(':', (0xC0 + 4));
  7163     1664  30C4               	movlw	196
  7164     1665  1283               	bcf	3,5	;RP0=0, select bank0
  7165     1666  1303               	bcf	3,6	;RP1=0, select bank0
  7166     1667  00CD               	movwf	clcd_putch@addr
  7167     1668  303A               	movlw	58
  7168     1669  160A  118A  21D6  160A  118A  	fcall	_clcd_putch
  7169                           
  7170                           ;car_black_box.c: 59:     clcd_putch(time[2], (0xC0 + 5));
  7171     166E  30C5               	movlw	197
  7172     166F  1283               	bcf	3,5	;RP0=0, select bank0
  7173     1670  1303               	bcf	3,6	;RP1=0, select bank0
  7174     1671  00CD               	movwf	clcd_putch@addr
  7175     1672  0840               	movf	_time+2,w
  7176     1673  160A  118A  21D6  160A  118A  	fcall	_clcd_putch
  7177                           
  7178                           ;car_black_box.c: 60:     clcd_putch(time[3], (0xC0 + 6));
  7179     1678  30C6               	movlw	198
  7180     1679  1283               	bcf	3,5	;RP0=0, select bank0
  7181     167A  1303               	bcf	3,6	;RP1=0, select bank0
  7182     167B  00CD               	movwf	clcd_putch@addr
  7183     167C  0841               	movf	_time+3,w
  7184     167D  160A  118A  21D6  160A  118A  	fcall	_clcd_putch
  7185                           
  7186                           ;car_black_box.c: 61:     clcd_putch(':', (0xC0 + 7));
  7187     1682  30C7               	movlw	199
  7188     1683  1283               	bcf	3,5	;RP0=0, select bank0
  7189     1684  1303               	bcf	3,6	;RP1=0, select bank0
  7190     1685  00CD               	movwf	clcd_putch@addr
  7191     1686  303A               	movlw	58
  7192     1687  160A  118A  21D6  160A  118A  	fcall	_clcd_putch
  7193                           
  7194                           ;car_black_box.c: 64:     clcd_putch(time[4], (0xC0 + 8));
  7195     168C  30C8               	movlw	200
  7196     168D  1283               	bcf	3,5	;RP0=0, select bank0
  7197     168E  1303               	bcf	3,6	;RP1=0, select bank0
  7198     168F  00CD               	movwf	clcd_putch@addr
  7199     1690  0842               	movf	_time+4,w
  7200     1691  160A  118A  21D6  160A  118A  	fcall	_clcd_putch
  7201                           
  7202                           ;car_black_box.c: 65:     clcd_putch(time[5], (0xC0 + 9));
  7203     1696  30C9               	movlw	201
  7204     1697  1283               	bcf	3,5	;RP0=0, select bank0
  7205     1698  1303               	bcf	3,6	;RP1=0, select bank0
  7206     1699  00CD               	movwf	clcd_putch@addr
  7207     169A  0843               	movf	_time+5,w
  7208     169B  160A  118A  21D6  160A  118A  	fcall	_clcd_putch
  7209     16A0                     l345:
  7210     16A0  0008               	return
  7211     16A1                     __end_of_display_time:
  7212                           
  7213                           	psect	text27
  7214     17A7                     __ptext27:	
  7215 ;; *************** function ___awmod *****************
  7216 ;; Defined at:
  7217 ;;		line 5 in file "C:\Program Files\Microchip\xc8\v2.46\pic\sources\c99\common\awmod.c"
  7218 ;; Parameters:    Size  Location     Type
  7219 ;;  divisor         2    2[COMMON] int 
  7220 ;;  dividend        2    4[COMMON] int 
  7221 ;; Auto vars:     Size  Location     Type
  7222 ;;  sign            1    7[COMMON] unsigned char 
  7223 ;;  counter         1    6[COMMON] unsigned char 
  7224 ;; Return value:  Size  Location     Type
  7225 ;;                  2    2[COMMON] int 
  7226 ;; Registers used:
  7227 ;;		wreg, status,2, status,0, btemp+1
  7228 ;; Tracked objects:
  7229 ;;		On entry : 0/0
  7230 ;;		On exit  : 0/0
  7231 ;;		Unchanged: 0/0
  7232 ;; Data sizes:     COMMON   BANK0   BANK1   BANK3   BANK2
  7233 ;;      Params:         4       0       0       0       0
  7234 ;;      Locals:         2       0       0       0       0
  7235 ;;      Temps:          0       0       0       0       0
  7236 ;;      Totals:         6       0       0       0       0
  7237 ;;Total ram usage:        6 bytes
  7238 ;; Hardware stack levels used: 1
  7239 ;; Hardware stack levels required when called: 1
  7240 ;; This function calls:
  7241 ;;		Nothing
  7242 ;; This function is called by:
  7243 ;;		_display_dashboard
  7244 ;;		_log_car_event
  7245 ;; This function uses a non-reentrant model
  7246 ;;
  7247                           
  7248     17A7                     ___awmod:	
  7249                           ;psect for function ___awmod
  7250                           
  7251     17A7                     l4140:	
  7252                           ;incstack = 0
  7253                           ; Regs used in ___awmod: [wreg+status,2+status,0+btemp+1]
  7254                           
  7255     17A7  01F7               	clrf	___awmod@sign
  7256     17A8                     l4142:
  7257     17A8  1FF5               	btfss	___awmod@dividend+1,7
  7258     17A9  2FAB               	goto	u3781
  7259     17AA  2FAC               	goto	u3780
  7260     17AB                     u3781:
  7261     17AB  2FB3               	goto	l4148
  7262     17AC                     u3780:
  7263     17AC                     l4144:
  7264     17AC  09F4               	comf	___awmod@dividend,f
  7265     17AD  09F5               	comf	___awmod@dividend+1,f
  7266     17AE  0AF4               	incf	___awmod@dividend,f
  7267     17AF  1903               	skipnz
  7268     17B0  0AF5               	incf	___awmod@dividend+1,f
  7269     17B1                     l4146:
  7270     17B1  01F7               	clrf	___awmod@sign
  7271     17B2  0AF7               	incf	___awmod@sign,f
  7272     17B3                     l4148:
  7273     17B3  1FF3               	btfss	___awmod@divisor+1,7
  7274     17B4  2FB6               	goto	u3791
  7275     17B5  2FB7               	goto	u3790
  7276     17B6                     u3791:
  7277     17B6  2FBC               	goto	l4152
  7278     17B7                     u3790:
  7279     17B7                     l4150:
  7280     17B7  09F2               	comf	___awmod@divisor,f
  7281     17B8  09F3               	comf	___awmod@divisor+1,f
  7282     17B9  0AF2               	incf	___awmod@divisor,f
  7283     17BA  1903               	skipnz
  7284     17BB  0AF3               	incf	___awmod@divisor+1,f
  7285     17BC                     l4152:
  7286     17BC  0872               	movf	___awmod@divisor,w
  7287     17BD  0473               	iorwf	___awmod@divisor+1,w
  7288     17BE  1903               	btfsc	3,2
  7289     17BF  2FC1               	goto	u3801
  7290     17C0  2FC2               	goto	u3800
  7291     17C1                     u3801:
  7292     17C1  2FF1               	goto	l4170
  7293     17C2                     u3800:
  7294     17C2                     l4154:
  7295     17C2  01F6               	clrf	___awmod@counter
  7296     17C3  0AF6               	incf	___awmod@counter,f
  7297     17C4  2FD0               	goto	l4160
  7298     17C5                     l4156:
  7299     17C5  3001               	movlw	1
  7300     17C6                     u3815:
  7301     17C6  1003               	clrc
  7302     17C7  0DF2               	rlf	___awmod@divisor,f
  7303     17C8  0DF3               	rlf	___awmod@divisor+1,f
  7304     17C9  3EFF               	addlw	-1
  7305     17CA  1D03               	skipz
  7306     17CB  2FC6               	goto	u3815
  7307     17CC                     l4158:
  7308     17CC  3001               	movlw	1
  7309     17CD  00FF               	movwf	btemp+1
  7310     17CE  087F               	movf	btemp+1,w
  7311     17CF  07F6               	addwf	___awmod@counter,f
  7312     17D0                     l4160:
  7313     17D0  1FF3               	btfss	___awmod@divisor+1,7
  7314     17D1  2FD3               	goto	u3821
  7315     17D2  2FD4               	goto	u3820
  7316     17D3                     u3821:
  7317     17D3  2FC5               	goto	l4156
  7318     17D4                     u3820:
  7319     17D4                     l4162:
  7320     17D4  0873               	movf	___awmod@divisor+1,w
  7321     17D5  0275               	subwf	___awmod@dividend+1,w
  7322     17D6  1D03               	skipz
  7323     17D7  2FDA               	goto	u3835
  7324     17D8  0872               	movf	___awmod@divisor,w
  7325     17D9  0274               	subwf	___awmod@dividend,w
  7326     17DA                     u3835:
  7327     17DA  1C03               	skipc
  7328     17DB  2FDD               	goto	u3831
  7329     17DC  2FDE               	goto	u3830
  7330     17DD                     u3831:
  7331     17DD  2FE4               	goto	l4166
  7332     17DE                     u3830:
  7333     17DE                     l4164:
  7334     17DE  0872               	movf	___awmod@divisor,w
  7335     17DF  02F4               	subwf	___awmod@dividend,f
  7336     17E0  0873               	movf	___awmod@divisor+1,w
  7337     17E1  1C03               	skipc
  7338     17E2  03F5               	decf	___awmod@dividend+1,f
  7339     17E3  02F5               	subwf	___awmod@dividend+1,f
  7340     17E4                     l4166:
  7341     17E4  3001               	movlw	1
  7342     17E5                     u3845:
  7343     17E5  1003               	clrc
  7344     17E6  0CF3               	rrf	___awmod@divisor+1,f
  7345     17E7  0CF2               	rrf	___awmod@divisor,f
  7346     17E8  3EFF               	addlw	-1
  7347     17E9  1D03               	skipz
  7348     17EA  2FE5               	goto	u3845
  7349     17EB                     l4168:
  7350     17EB  3001               	movlw	1
  7351     17EC  02F6               	subwf	___awmod@counter,f
  7352     17ED  1D03               	btfss	3,2
  7353     17EE  2FF0               	goto	u3851
  7354     17EF  2FF1               	goto	u3850
  7355     17F0                     u3851:
  7356     17F0  2FD4               	goto	l4162
  7357     17F1                     u3850:
  7358     17F1                     l4170:
  7359     17F1  0877               	movf	___awmod@sign,w
  7360     17F2  1903               	btfsc	3,2
  7361     17F3  2FF5               	goto	u3861
  7362     17F4  2FF6               	goto	u3860
  7363     17F5                     u3861:
  7364     17F5  2FFB               	goto	l4174
  7365     17F6                     u3860:
  7366     17F6                     l4172:
  7367     17F6  09F4               	comf	___awmod@dividend,f
  7368     17F7  09F5               	comf	___awmod@dividend+1,f
  7369     17F8  0AF4               	incf	___awmod@dividend,f
  7370     17F9  1903               	skipnz
  7371     17FA  0AF5               	incf	___awmod@dividend+1,f
  7372     17FB                     l4174:
  7373     17FB  0875               	movf	___awmod@dividend+1,w
  7374     17FC  00F3               	movwf	?___awmod+1
  7375     17FD  0874               	movf	___awmod@dividend,w
  7376     17FE  00F2               	movwf	?___awmod
  7377     17FF                     l803:
  7378     17FF  0008               	return
  7379     1800                     __end_of___awmod:
  7380                           
  7381                           	psect	text28
  7382     090D                     __ptext28:	
  7383 ;; *************** function ___awdiv *****************
  7384 ;; Defined at:
  7385 ;;		line 5 in file "C:\Program Files\Microchip\xc8\v2.46\pic\sources\c99\common\awdiv.c"
  7386 ;; Parameters:    Size  Location     Type
  7387 ;;  divisor         2    2[COMMON] int 
  7388 ;;  dividend        2    4[COMMON] int 
  7389 ;; Auto vars:     Size  Location     Type
  7390 ;;  quotient        2    8[COMMON] int 
  7391 ;;  sign            1    7[COMMON] unsigned char 
  7392 ;;  counter         1    6[COMMON] unsigned char 
  7393 ;; Return value:  Size  Location     Type
  7394 ;;                  2    2[COMMON] int 
  7395 ;; Registers used:
  7396 ;;		wreg, status,2, status,0, btemp+1
  7397 ;; Tracked objects:
  7398 ;;		On entry : 0/0
  7399 ;;		On exit  : 0/0
  7400 ;;		Unchanged: 0/0
  7401 ;; Data sizes:     COMMON   BANK0   BANK1   BANK3   BANK2
  7402 ;;      Params:         4       0       0       0       0
  7403 ;;      Locals:         4       0       0       0       0
  7404 ;;      Temps:          0       0       0       0       0
  7405 ;;      Totals:         8       0       0       0       0
  7406 ;;Total ram usage:        8 bytes
  7407 ;; Hardware stack levels used: 1
  7408 ;; Hardware stack levels required when called: 1
  7409 ;; This function calls:
  7410 ;;		Nothing
  7411 ;; This function is called by:
  7412 ;;		_display_dashboard
  7413 ;;		_log_car_event
  7414 ;; This function uses a non-reentrant model
  7415 ;;
  7416                           
  7417     090D                     ___awdiv:	
  7418                           ;psect for function ___awdiv
  7419                           
  7420     090D                     l4096:	
  7421                           ;incstack = 0
  7422                           ; Regs used in ___awdiv: [wreg+status,2+status,0+btemp+1]
  7423                           
  7424     090D  01F7               	clrf	___awdiv@sign
  7425     090E                     l4098:
  7426     090E  1FF3               	btfss	___awdiv@divisor+1,7
  7427     090F  2911               	goto	u3681
  7428     0910  2912               	goto	u3680
  7429     0911                     u3681:
  7430     0911  2919               	goto	l4104
  7431     0912                     u3680:
  7432     0912                     l4100:
  7433     0912  09F2               	comf	___awdiv@divisor,f
  7434     0913  09F3               	comf	___awdiv@divisor+1,f
  7435     0914  0AF2               	incf	___awdiv@divisor,f
  7436     0915  1903               	skipnz
  7437     0916  0AF3               	incf	___awdiv@divisor+1,f
  7438     0917                     l4102:
  7439     0917  01F7               	clrf	___awdiv@sign
  7440     0918  0AF7               	incf	___awdiv@sign,f
  7441     0919                     l4104:
  7442     0919  1FF5               	btfss	___awdiv@dividend+1,7
  7443     091A  291C               	goto	u3691
  7444     091B  291D               	goto	u3690
  7445     091C                     u3691:
  7446     091C  2926               	goto	l4110
  7447     091D                     u3690:
  7448     091D                     l4106:
  7449     091D  09F4               	comf	___awdiv@dividend,f
  7450     091E  09F5               	comf	___awdiv@dividend+1,f
  7451     091F  0AF4               	incf	___awdiv@dividend,f
  7452     0920  1903               	skipnz
  7453     0921  0AF5               	incf	___awdiv@dividend+1,f
  7454     0922                     l4108:
  7455     0922  3001               	movlw	1
  7456     0923  00FF               	movwf	btemp+1
  7457     0924  087F               	movf	btemp+1,w
  7458     0925  06F7               	xorwf	___awdiv@sign,f
  7459     0926                     l4110:
  7460     0926  01F8               	clrf	___awdiv@quotient
  7461     0927  01F9               	clrf	___awdiv@quotient+1
  7462     0928                     l4112:
  7463     0928  0872               	movf	___awdiv@divisor,w
  7464     0929  0473               	iorwf	___awdiv@divisor+1,w
  7465     092A  1903               	btfsc	3,2
  7466     092B  292D               	goto	u3701
  7467     092C  292E               	goto	u3700
  7468     092D                     u3701:
  7469     092D  2965               	goto	l4132
  7470     092E                     u3700:
  7471     092E                     l4114:
  7472     092E  01F6               	clrf	___awdiv@counter
  7473     092F  0AF6               	incf	___awdiv@counter,f
  7474     0930  293C               	goto	l4120
  7475     0931                     l4116:
  7476     0931  3001               	movlw	1
  7477     0932                     u3715:
  7478     0932  1003               	clrc
  7479     0933  0DF2               	rlf	___awdiv@divisor,f
  7480     0934  0DF3               	rlf	___awdiv@divisor+1,f
  7481     0935  3EFF               	addlw	-1
  7482     0936  1D03               	skipz
  7483     0937  2932               	goto	u3715
  7484     0938                     l4118:
  7485     0938  3001               	movlw	1
  7486     0939  00FF               	movwf	btemp+1
  7487     093A  087F               	movf	btemp+1,w
  7488     093B  07F6               	addwf	___awdiv@counter,f
  7489     093C                     l4120:
  7490     093C  1FF3               	btfss	___awdiv@divisor+1,7
  7491     093D  293F               	goto	u3721
  7492     093E  2940               	goto	u3720
  7493     093F                     u3721:
  7494     093F  2931               	goto	l4116
  7495     0940                     u3720:
  7496     0940                     l4122:
  7497     0940  3001               	movlw	1
  7498     0941                     u3735:
  7499     0941  1003               	clrc
  7500     0942  0DF8               	rlf	___awdiv@quotient,f
  7501     0943  0DF9               	rlf	___awdiv@quotient+1,f
  7502     0944  3EFF               	addlw	-1
  7503     0945  1D03               	skipz
  7504     0946  2941               	goto	u3735
  7505     0947  0873               	movf	___awdiv@divisor+1,w
  7506     0948  0275               	subwf	___awdiv@dividend+1,w
  7507     0949  1D03               	skipz
  7508     094A  294D               	goto	u3745
  7509     094B  0872               	movf	___awdiv@divisor,w
  7510     094C  0274               	subwf	___awdiv@dividend,w
  7511     094D                     u3745:
  7512     094D  1C03               	skipc
  7513     094E  2950               	goto	u3741
  7514     094F  2951               	goto	u3740
  7515     0950                     u3741:
  7516     0950  2958               	goto	l4128
  7517     0951                     u3740:
  7518     0951                     l4124:
  7519     0951  0872               	movf	___awdiv@divisor,w
  7520     0952  02F4               	subwf	___awdiv@dividend,f
  7521     0953  0873               	movf	___awdiv@divisor+1,w
  7522     0954  1C03               	skipc
  7523     0955  03F5               	decf	___awdiv@dividend+1,f
  7524     0956  02F5               	subwf	___awdiv@dividend+1,f
  7525     0957                     l4126:
  7526     0957  1478               	bsf	___awdiv@quotient,0
  7527     0958                     l4128:
  7528     0958  3001               	movlw	1
  7529     0959                     u3755:
  7530     0959  1003               	clrc
  7531     095A  0CF3               	rrf	___awdiv@divisor+1,f
  7532     095B  0CF2               	rrf	___awdiv@divisor,f
  7533     095C  3EFF               	addlw	-1
  7534     095D  1D03               	skipz
  7535     095E  2959               	goto	u3755
  7536     095F                     l4130:
  7537     095F  3001               	movlw	1
  7538     0960  02F6               	subwf	___awdiv@counter,f
  7539     0961  1D03               	btfss	3,2
  7540     0962  2964               	goto	u3761
  7541     0963  2965               	goto	u3760
  7542     0964                     u3761:
  7543     0964  2940               	goto	l4122
  7544     0965                     u3760:
  7545     0965                     l4132:
  7546     0965  0877               	movf	___awdiv@sign,w
  7547     0966  1903               	btfsc	3,2
  7548     0967  2969               	goto	u3771
  7549     0968  296A               	goto	u3770
  7550     0969                     u3771:
  7551     0969  296F               	goto	l4136
  7552     096A                     u3770:
  7553     096A                     l4134:
  7554     096A  09F8               	comf	___awdiv@quotient,f
  7555     096B  09F9               	comf	___awdiv@quotient+1,f
  7556     096C  0AF8               	incf	___awdiv@quotient,f
  7557     096D  1903               	skipnz
  7558     096E  0AF9               	incf	___awdiv@quotient+1,f
  7559     096F                     l4136:
  7560     096F  0879               	movf	___awdiv@quotient+1,w
  7561     0970  00F3               	movwf	?___awdiv+1
  7562     0971  0878               	movf	___awdiv@quotient,w
  7563     0972  00F2               	movwf	?___awdiv
  7564     0973                     l790:
  7565     0973  0008               	return
  7566     0974                     __end_of___awdiv:
  7567                           
  7568                           	psect	text29
  7569     131F                     __ptext29:	
  7570 ;; *************** function _clear_log *****************
  7571 ;; Defined at:
  7572 ;;		line 411 in file "car_black_box.c"
  7573 ;; Parameters:    Size  Location     Type
  7574 ;;  reset_memory    1    wreg     unsigned char 
  7575 ;; Auto vars:     Size  Location     Type
  7576 ;;  reset_memory    1    9[COMMON] unsigned char 
  7577 ;; Return value:  Size  Location     Type
  7578 ;;                  1    wreg      unsigned char 
  7579 ;; Registers used:
  7580 ;;		wreg, fsr0l, fsr0h, status,2, status,0, btemp+1, pclath, cstack
  7581 ;; Tracked objects:
  7582 ;;		On entry : 0/0
  7583 ;;		On exit  : 0/0
  7584 ;;		Unchanged: 0/0
  7585 ;; Data sizes:     COMMON   BANK0   BANK1   BANK3   BANK2
  7586 ;;      Params:         0       0       0       0       0
  7587 ;;      Locals:         1       0       0       0       0
  7588 ;;      Temps:          0       0       0       0       0
  7589 ;;      Totals:         1       0       0       0       0
  7590 ;;Total ram usage:        1 bytes
  7591 ;; Hardware stack levels used: 1
  7592 ;; Hardware stack levels required when called: 3
  7593 ;; This function calls:
  7594 ;;		_clcd_print
  7595 ;; This function is called by:
  7596 ;;		_main
  7597 ;; This function uses a non-reentrant model
  7598 ;;
  7599                           
  7600     131F                     _clear_log:	
  7601                           ;psect for function _clear_log
  7602                           
  7603                           
  7604                           ;incstack = 0
  7605                           ; Regs used in _clear_log: [wreg-fsr0h+status,2+status,0+btemp+1+pclath+cstack]
  7606                           ;clear_log@reset_memory stored from wreg
  7607     131F  00F9               	movwf	clear_log@reset_memory
  7608     1320                     l4616:
  7609                           
  7610                           ;car_black_box.c: 411: char clear_log(char reset_memory);car_black_box.c: 412: {;car_bla
      +                          ck_box.c: 413:     clcd_print("Logs cleared", (0x80 + 2));
  7611     1320  3070               	movlw	low (STR_32| (0+32768))
  7612     1321  00F6               	movwf	clcd_print@str
  7613     1322  3088               	movlw	high (STR_32| (0+32768))
  7614     1323  00F7               	movwf	clcd_print@str+1
  7615     1324  3082               	movlw	130
  7616     1325  00F8               	movwf	clcd_print@addr
  7617     1326  160A  118A  23A2  160A  118A  	fcall	_clcd_print
  7618                           
  7619                           ;car_black_box.c: 414:     clcd_print("successfully", (0xC0 + 2));
  7620     132B  3097               	movlw	low (STR_33| (0+32768))
  7621     132C  00F6               	movwf	clcd_print@str
  7622     132D  3088               	movlw	high (STR_33| (0+32768))
  7623     132E  00F7               	movwf	clcd_print@str+1
  7624     132F  30C2               	movlw	194
  7625     1330  00F8               	movwf	clcd_print@addr
  7626     1331  160A  118A  23A2  160A  118A  	fcall	_clcd_print
  7627     1336                     l4618:
  7628                           
  7629                           ;car_black_box.c: 417:     if (reset_memory == 0x40)
  7630     1336  3040               	movlw	64
  7631     1337  0679               	xorwf	clear_log@reset_memory,w
  7632     1338  1D03               	btfss	3,2
  7633     1339  2B3B               	goto	u4441
  7634     133A  2B3C               	goto	u4440
  7635     133B                     u4441:
  7636     133B  2B48               	goto	l4624
  7637     133C                     u4440:
  7638     133C                     l4620:
  7639                           
  7640                           ;car_black_box.c: 418:     {;car_black_box.c: 420:         pos = -1;
  7641     133C  30FF               	movlw	255
  7642     133D  1283               	bcf	3,5	;RP0=0, select bank0
  7643     133E  1303               	bcf	3,6	;RP1=0, select bank0
  7644     133F  00E8               	movwf	_pos
  7645     1340  30FF               	movlw	255
  7646     1341  00E9               	movwf	_pos+1
  7647                           
  7648                           ;car_black_box.c: 421:         event_count = -1;
  7649     1342  30FF               	movlw	255
  7650     1343  00E6               	movwf	_event_count
  7651     1344  30FF               	movlw	255
  7652     1345  00E7               	movwf	_event_count+1
  7653                           
  7654                           ;car_black_box.c: 423:         return 0x0C;
  7655     1346  300C               	movlw	12
  7656     1347  2B49               	goto	l413
  7657     1348                     l4624:
  7658                           
  7659                           ;car_black_box.c: 426:     return 0x0D;
  7660     1348  300D               	movlw	13
  7661     1349                     l413:
  7662     1349  0008               	return
  7663     134A                     __end_of_clear_log:
  7664                           
  7665                           	psect	text30
  7666     037C                     __ptext30:	
  7667 ;; *************** function _change_time *****************
  7668 ;; Defined at:
  7669 ;;		line 631 in file "car_black_box.c"
  7670 ;; Parameters:    Size  Location     Type
  7671 ;;  key             1    wreg     unsigned char 
  7672 ;;  reset_time      1   10[BANK0 ] unsigned char 
  7673 ;; Auto vars:     Size  Location     Type
  7674 ;;  key             1   14[BANK0 ] unsigned char 
  7675 ;;  buffer          1   15[BANK0 ] unsigned char 
  7676 ;; Return value:  Size  Location     Type
  7677 ;;                  1    wreg      unsigned char 
  7678 ;; Registers used:
  7679 ;;		wreg, fsr0l, fsr0h, status,2, status,0, btemp+1, pclath, cstack
  7680 ;; Tracked objects:
  7681 ;;		On entry : 0/0
  7682 ;;		On exit  : 0/0
  7683 ;;		Unchanged: 0/0
  7684 ;; Data sizes:     COMMON   BANK0   BANK1   BANK3   BANK2
  7685 ;;      Params:         0       1       0       0       0
  7686 ;;      Locals:         0       2       0       0       0
  7687 ;;      Temps:          0       3       0       0       0
  7688 ;;      Totals:         0       6       0       0       0
  7689 ;;Total ram usage:        6 bytes
  7690 ;; Hardware stack levels used: 1
  7691 ;; Hardware stack levels required when called: 6
  7692 ;; This function calls:
  7693 ;;		___lwdiv
  7694 ;;		___lwmod
  7695 ;;		___wmul
  7696 ;;		_clcd_print
  7697 ;;		_clcd_putch
  7698 ;;		_clcd_write
  7699 ;;		_get_time
  7700 ;;		_write_ds1307
  7701 ;; This function is called by:
  7702 ;;		_main
  7703 ;; This function uses a non-reentrant model
  7704 ;;
  7705                           
  7706     037C                     _change_time:	
  7707                           ;psect for function _change_time
  7708                           
  7709                           
  7710                           ;incstack = 0
  7711                           ; Regs used in _change_time: [wreg-fsr0h+status,2+status,0+btemp+1+pclath+cstack]
  7712                           ;change_time@key stored from wreg
  7713     037C  1283               	bcf	3,5	;RP0=0, select bank0
  7714     037D  1303               	bcf	3,6	;RP1=0, select bank0
  7715     037E  00D3               	movwf	change_time@key
  7716     037F                     l4750:
  7717                           
  7718                           ;car_black_box.c: 631: char change_time(unsigned char key, unsigned char reset_time);car
      +                          _black_box.c: 632: {;car_black_box.c: 633:     static unsigned int new_time[3];;car_blac
      +                          k_box.c: 634:     static unsigned int blink_pos;;car_black_box.c: 635:     static unsign
      +                          ed char wait;;car_black_box.c: 636:     static unsigned char blink;;car_black_box.c: 637
      +                          :     static char t_done = 0;;car_black_box.c: 638:     char buffer;;car_black_box.c: 64
      +                          2:     if (reset_time == 0x30)
  7719     037F  3030               	movlw	48
  7720     0380  064F               	xorwf	change_time@reset_time,w
  7721     0381  1D03               	btfss	3,2
  7722     0382  2B84               	goto	u4601
  7723     0383  2B85               	goto	u4600
  7724     0384                     u4601:
  7725     0384  2BFC               	goto	l4766
  7726     0385                     u4600:
  7727     0385                     l4752:
  7728                           
  7729                           ;car_black_box.c: 643:     {;car_black_box.c: 644:         get_time();
  7730     0385  160A  118A  25AE  120A  118A  	fcall	_get_time
  7731                           
  7732                           ;car_black_box.c: 647:         new_time[0] = (time[0] & 0x0F) * 10 + (time[1] & 0x0F);
  7733     038A  300F               	movlw	15
  7734     038B  1283               	bcf	3,5	;RP0=0, select bank0
  7735     038C  1303               	bcf	3,6	;RP1=0, select bank0
  7736     038D  053F               	andwf	_time+1,w
  7737     038E  00D0               	movwf	??_change_time
  7738     038F  083E               	movf	_time,w
  7739     0390  390F               	andlw	15
  7740     0391  00D1               	movwf	??_change_time+1
  7741     0392  01D2               	clrf	??_change_time+2
  7742     0393  0851               	movf	??_change_time+1,w
  7743     0394  00F2               	movwf	___wmul@multiplier
  7744     0395  0852               	movf	??_change_time+2,w
  7745     0396  00F3               	movwf	___wmul@multiplier+1
  7746     0397  300A               	movlw	10
  7747     0398  00F4               	movwf	___wmul@multiplicand
  7748     0399  3000               	movlw	0
  7749     039A  00F5               	movwf	___wmul@multiplicand+1
  7750     039B  160A  118A  2282  120A  118A  	fcall	___wmul
  7751     03A0  1283               	bcf	3,5	;RP0=0, select bank0
  7752     03A1  1303               	bcf	3,6	;RP1=0, select bank0
  7753     03A2  0850               	movf	??_change_time,w
  7754     03A3  0772               	addwf	?___wmul,w
  7755     03A4  00A0               	movwf	change_time@new_time
  7756     03A5  3000               	movlw	0
  7757     03A6  1803               	skipnc
  7758     03A7  3001               	movlw	1
  7759     03A8  0773               	addwf	?___wmul+1,w
  7760     03A9  00A1               	movwf	change_time@new_time+1
  7761                           
  7762                           ;car_black_box.c: 650:         new_time[1] = (time[2] & 0x0F) * 10 + (time[3] & 0x0F);
  7763     03AA  300F               	movlw	15
  7764     03AB  0541               	andwf	_time+3,w
  7765     03AC  00D0               	movwf	??_change_time
  7766     03AD  0840               	movf	_time+2,w
  7767     03AE  390F               	andlw	15
  7768     03AF  00D1               	movwf	??_change_time+1
  7769     03B0  01D2               	clrf	??_change_time+2
  7770     03B1  0851               	movf	??_change_time+1,w
  7771     03B2  00F2               	movwf	___wmul@multiplier
  7772     03B3  0852               	movf	??_change_time+2,w
  7773     03B4  00F3               	movwf	___wmul@multiplier+1
  7774     03B5  300A               	movlw	10
  7775     03B6  00F4               	movwf	___wmul@multiplicand
  7776     03B7  3000               	movlw	0
  7777     03B8  00F5               	movwf	___wmul@multiplicand+1
  7778     03B9  160A  118A  2282  120A  118A  	fcall	___wmul
  7779     03BE  1283               	bcf	3,5	;RP0=0, select bank0
  7780     03BF  1303               	bcf	3,6	;RP1=0, select bank0
  7781     03C0  0850               	movf	??_change_time,w
  7782     03C1  0772               	addwf	?___wmul,w
  7783     03C2  00A2               	movwf	change_time@new_time+2
  7784     03C3  3000               	movlw	0
  7785     03C4  1803               	skipnc
  7786     03C5  3001               	movlw	1
  7787     03C6  0773               	addwf	?___wmul+1,w
  7788     03C7  00A3               	movwf	change_time@new_time+3
  7789                           
  7790                           ;car_black_box.c: 653:         new_time[2] = (time[4] & 0x0F) * 10 + (time[5] & 0x0F);
  7791     03C8  300F               	movlw	15
  7792     03C9  0543               	andwf	_time+5,w
  7793     03CA  00D0               	movwf	??_change_time
  7794     03CB  0842               	movf	_time+4,w
  7795     03CC  390F               	andlw	15
  7796     03CD  00D1               	movwf	??_change_time+1
  7797     03CE  01D2               	clrf	??_change_time+2
  7798     03CF  0851               	movf	??_change_time+1,w
  7799     03D0  00F2               	movwf	___wmul@multiplier
  7800     03D1  0852               	movf	??_change_time+2,w
  7801     03D2  00F3               	movwf	___wmul@multiplier+1
  7802     03D3  300A               	movlw	10
  7803     03D4  00F4               	movwf	___wmul@multiplicand
  7804     03D5  3000               	movlw	0
  7805     03D6  00F5               	movwf	___wmul@multiplicand+1
  7806     03D7  160A  118A  2282  120A  118A  	fcall	___wmul
  7807     03DC  1283               	bcf	3,5	;RP0=0, select bank0
  7808     03DD  1303               	bcf	3,6	;RP1=0, select bank0
  7809     03DE  0850               	movf	??_change_time,w
  7810     03DF  0772               	addwf	?___wmul,w
  7811     03E0  00A4               	movwf	change_time@new_time+4
  7812     03E1  3000               	movlw	0
  7813     03E2  1803               	skipnc
  7814     03E3  3001               	movlw	1
  7815     03E4  0773               	addwf	?___wmul+1,w
  7816     03E5  00A5               	movwf	change_time@new_time+5
  7817     03E6                     l4754:
  7818                           
  7819                           ;car_black_box.c: 655:         clcd_print("Time (HH:MM:SS)", (0x80 + 0));
  7820     03E6  3025               	movlw	low (STR_49| (0+32768))
  7821     03E7  00F6               	movwf	clcd_print@str
  7822     03E8  3088               	movlw	high (STR_49| (0+32768))
  7823     03E9  00F7               	movwf	clcd_print@str+1
  7824     03EA  3080               	movlw	128
  7825     03EB  00F8               	movwf	clcd_print@addr
  7826     03EC  160A  118A  23A2  120A  118A  	fcall	_clcd_print
  7827     03F1                     l4756:
  7828                           
  7829                           ;car_black_box.c: 658:         blink_pos = 2;
  7830     03F1  3002               	movlw	2
  7831     03F2  1283               	bcf	3,5	;RP0=0, select bank0
  7832     03F3  1303               	bcf	3,6	;RP1=0, select bank0
  7833     03F4  00AB               	movwf	change_time@blink_pos
  7834     03F5  3000               	movlw	0
  7835     03F6  00AC               	movwf	change_time@blink_pos+1
  7836     03F7                     l4758:
  7837                           
  7838                           ;car_black_box.c: 659:         wait = 0;
  7839     03F7  01B9               	clrf	change_time@wait
  7840     03F8                     l4760:
  7841                           
  7842                           ;car_black_box.c: 660:         blink = 0;
  7843     03F8  01B8               	clrf	change_time@blink
  7844     03F9                     l4762:
  7845                           
  7846                           ;car_black_box.c: 661:         t_done = 0;
  7847     03F9  01B7               	clrf	change_time@t_done
  7848     03FA                     l4764:
  7849                           
  7850                           ;car_black_box.c: 662:         key = 0x3F;
  7851     03FA  303F               	movlw	63
  7852     03FB  00D3               	movwf	change_time@key
  7853     03FC                     l4766:
  7854                           
  7855                           ;car_black_box.c: 667:     if (t_done)
  7856     03FC  0837               	movf	change_time@t_done,w
  7857     03FD  1903               	btfsc	3,2
  7858     03FE  2C00               	goto	u4611
  7859     03FF  2C01               	goto	u4610
  7860     0400                     u4611:
  7861     0400  2D12               	goto	l4810
  7862     0401                     u4610:
  7863     0401                     l4768:
  7864                           
  7865                           ;car_black_box.c: 668:         return 0x0D;
  7866     0401  300D               	movlw	13
  7867     0402  2E45               	goto	l471
  7868     0403                     l4772:
  7869                           
  7870                           ;car_black_box.c: 675:             new_time[blink_pos]++;
  7871     0403  082B               	movf	change_time@blink_pos,w
  7872     0404  00D0               	movwf	??_change_time
  7873     0405  0750               	addwf	??_change_time,w
  7874     0406  3E20               	addlw	(low (change_time@new_time| 0))& (0+255)
  7875     0407  0084               	movwf	4
  7876     0408  3001               	movlw	1
  7877     0409  1383               	bcf	3,7	;select IRP bank0
  7878     040A  0780               	addwf	0,f
  7879     040B  0A84               	incf	4,f
  7880     040C  1803               	skipnc
  7881     040D  0A80               	incf	0,f
  7882                           
  7883                           ;car_black_box.c: 676:             break;
  7884     040E  2D1D               	goto	l4812
  7885     040F                     l4774:
  7886                           
  7887                           ;car_black_box.c: 679:             blink_pos = (blink_pos + 1) % 3;
  7888     040F  3003               	movlw	3
  7889     0410  00C8               	movwf	___lwmod@divisor
  7890     0411  3000               	movlw	0
  7891     0412  00C9               	movwf	___lwmod@divisor+1
  7892     0413  082B               	movf	change_time@blink_pos,w
  7893     0414  3E01               	addlw	1
  7894     0415  00CA               	movwf	___lwmod@dividend
  7895     0416  082C               	movf	change_time@blink_pos+1,w
  7896     0417  1803               	skipnc
  7897     0418  3E01               	addlw	1
  7898     0419  3E00               	addlw	0
  7899     041A  00CB               	movwf	___lwmod@dividend+1
  7900     041B  160A  118A  24A5  120A  118A  	fcall	___lwmod
  7901     0420  1283               	bcf	3,5	;RP0=0, select bank0
  7902     0421  1303               	bcf	3,6	;RP1=0, select bank0
  7903     0422  0849               	movf	?___lwmod+1,w
  7904     0423  00AC               	movwf	change_time@blink_pos+1
  7905     0424  0848               	movf	?___lwmod,w
  7906     0425  00AB               	movwf	change_time@blink_pos
  7907                           
  7908                           ;car_black_box.c: 680:             break;
  7909     0426  2D1D               	goto	l4812
  7910     0427                     l4776:
  7911                           
  7912                           ;car_black_box.c: 684:             get_time();
  7913     0427  160A  118A  25AE  120A  118A  	fcall	_get_time
  7914     042C                     l4778:
  7915                           
  7916                           ;car_black_box.c: 686:             buffer = ((new_time[0] / 10) << 4) | new_time[0] % 10
      +                          ;
  7917     042C  300A               	movlw	10
  7918     042D  1283               	bcf	3,5	;RP0=0, select bank0
  7919     042E  1303               	bcf	3,6	;RP1=0, select bank0
  7920     042F  00C8               	movwf	___lwmod@divisor
  7921     0430  3000               	movlw	0
  7922     0431  00C9               	movwf	___lwmod@divisor+1
  7923     0432  0821               	movf	change_time@new_time+1,w
  7924     0433  00CB               	movwf	___lwmod@dividend+1
  7925     0434  0820               	movf	change_time@new_time,w
  7926     0435  00CA               	movwf	___lwmod@dividend
  7927     0436  160A  118A  24A5  120A  118A  	fcall	___lwmod
  7928     043B  1283               	bcf	3,5	;RP0=0, select bank0
  7929     043C  1303               	bcf	3,6	;RP1=0, select bank0
  7930     043D  0848               	movf	?___lwmod,w
  7931     043E  00D0               	movwf	??_change_time
  7932     043F  0849               	movf	?___lwmod+1,w
  7933     0440  00D1               	movwf	??_change_time+1
  7934     0441  300A               	movlw	10
  7935     0442  00F6               	movwf	___lwdiv@divisor
  7936     0443  3000               	movlw	0
  7937     0444  00F7               	movwf	___lwdiv@divisor+1
  7938     0445  0821               	movf	change_time@new_time+1,w
  7939     0446  00F9               	movwf	___lwdiv@dividend+1
  7940     0447  0820               	movf	change_time@new_time,w
  7941     0448  00F8               	movwf	___lwdiv@dividend
  7942     0449  160A  118A  2520  120A  118A  	fcall	___lwdiv
  7943     044E  0876               	movf	?___lwdiv,w
  7944     044F  1283               	bcf	3,5	;RP0=0, select bank0
  7945     0450  1303               	bcf	3,6	;RP1=0, select bank0
  7946     0451  00D2               	movwf	??_change_time+2
  7947     0452  3003               	movlw	3
  7948     0453                     u4625:
  7949     0453  1003               	clrc
  7950     0454  0DD2               	rlf	??_change_time+2,f
  7951     0455  3EFF               	addlw	-1
  7952     0456  1D03               	skipz
  7953     0457  2C53               	goto	u4625
  7954     0458  1003               	clrc
  7955     0459  0D52               	rlf	??_change_time+2,w
  7956     045A  0450               	iorwf	??_change_time,w
  7957     045B  00D4               	movwf	change_time@buffer
  7958     045C                     l4780:
  7959                           
  7960                           ;car_black_box.c: 687:             clock_reg[0] = (clock_reg[0] & 0xC0) | buffer;
  7961     045C  0826               	movf	_clock_reg,w
  7962     045D  39C0               	andlw	192
  7963     045E  0454               	iorwf	change_time@buffer,w
  7964     045F  00A6               	movwf	_clock_reg
  7965     0460                     l4782:
  7966                           
  7967                           ;car_black_box.c: 688:             write_ds1307(0x02, clock_reg[0]);
  7968     0460  0826               	movf	_clock_reg,w
  7969     0461  00F3               	movwf	write_ds1307@data
  7970     0462  3002               	movlw	2
  7971     0463  160A  118A  2200  120A  118A  	fcall	_write_ds1307
  7972     0468                     l4784:
  7973                           
  7974                           ;car_black_box.c: 691:             buffer = ((new_time[1] / 10) << 4) | new_time[1] % 10
      +                          ;
  7975     0468  300A               	movlw	10
  7976     0469  1283               	bcf	3,5	;RP0=0, select bank0
  7977     046A  1303               	bcf	3,6	;RP1=0, select bank0
  7978     046B  00C8               	movwf	___lwmod@divisor
  7979     046C  3000               	movlw	0
  7980     046D  00C9               	movwf	___lwmod@divisor+1
  7981     046E  0823               	movf	change_time@new_time+3,w
  7982     046F  00CB               	movwf	___lwmod@dividend+1
  7983     0470  0822               	movf	change_time@new_time+2,w
  7984     0471  00CA               	movwf	___lwmod@dividend
  7985     0472  160A  118A  24A5  120A  118A  	fcall	___lwmod
  7986     0477  1283               	bcf	3,5	;RP0=0, select bank0
  7987     0478  1303               	bcf	3,6	;RP1=0, select bank0
  7988     0479  0848               	movf	?___lwmod,w
  7989     047A  00D0               	movwf	??_change_time
  7990     047B  0849               	movf	?___lwmod+1,w
  7991     047C  00D1               	movwf	??_change_time+1
  7992     047D  300A               	movlw	10
  7993     047E  00F6               	movwf	___lwdiv@divisor
  7994     047F  3000               	movlw	0
  7995     0480  00F7               	movwf	___lwdiv@divisor+1
  7996     0481  0823               	movf	change_time@new_time+3,w
  7997     0482  00F9               	movwf	___lwdiv@dividend+1
  7998     0483  0822               	movf	change_time@new_time+2,w
  7999     0484  00F8               	movwf	___lwdiv@dividend
  8000     0485  160A  118A  2520  120A  118A  	fcall	___lwdiv
  8001     048A  0876               	movf	?___lwdiv,w
  8002     048B  1283               	bcf	3,5	;RP0=0, select bank0
  8003     048C  1303               	bcf	3,6	;RP1=0, select bank0
  8004     048D  00D2               	movwf	??_change_time+2
  8005     048E  3003               	movlw	3
  8006     048F                     u4635:
  8007     048F  1003               	clrc
  8008     0490  0DD2               	rlf	??_change_time+2,f
  8009     0491  3EFF               	addlw	-1
  8010     0492  1D03               	skipz
  8011     0493  2C8F               	goto	u4635
  8012     0494  1003               	clrc
  8013     0495  0D52               	rlf	??_change_time+2,w
  8014     0496  0450               	iorwf	??_change_time,w
  8015     0497  00D4               	movwf	change_time@buffer
  8016                           
  8017                           ;car_black_box.c: 692:             clock_reg[1] = (clock_reg[1] & 0x80) | buffer;
  8018     0498  0827               	movf	_clock_reg+1,w
  8019     0499  3980               	andlw	128
  8020     049A  0454               	iorwf	change_time@buffer,w
  8021     049B  00A7               	movwf	_clock_reg+1
  8022     049C                     l4786:
  8023                           
  8024                           ;car_black_box.c: 693:             write_ds1307(0x01, clock_reg[1]);
  8025     049C  0827               	movf	_clock_reg+1,w
  8026     049D  00F3               	movwf	write_ds1307@data
  8027     049E  3001               	movlw	1
  8028     049F  160A  118A  2200  120A  118A  	fcall	_write_ds1307
  8029     04A4                     l4788:
  8030                           
  8031                           ;car_black_box.c: 696:             buffer = ((new_time[2] / 10) << 4) | new_time[2] % 10
      +                          ;
  8032     04A4  300A               	movlw	10
  8033     04A5  1283               	bcf	3,5	;RP0=0, select bank0
  8034     04A6  1303               	bcf	3,6	;RP1=0, select bank0
  8035     04A7  00C8               	movwf	___lwmod@divisor
  8036     04A8  3000               	movlw	0
  8037     04A9  00C9               	movwf	___lwmod@divisor+1
  8038     04AA  0825               	movf	change_time@new_time+5,w
  8039     04AB  00CB               	movwf	___lwmod@dividend+1
  8040     04AC  0824               	movf	change_time@new_time+4,w
  8041     04AD  00CA               	movwf	___lwmod@dividend
  8042     04AE  160A  118A  24A5  120A  118A  	fcall	___lwmod
  8043     04B3  1283               	bcf	3,5	;RP0=0, select bank0
  8044     04B4  1303               	bcf	3,6	;RP1=0, select bank0
  8045     04B5  0848               	movf	?___lwmod,w
  8046     04B6  00D0               	movwf	??_change_time
  8047     04B7  0849               	movf	?___lwmod+1,w
  8048     04B8  00D1               	movwf	??_change_time+1
  8049     04B9  300A               	movlw	10
  8050     04BA  00F6               	movwf	___lwdiv@divisor
  8051     04BB  3000               	movlw	0
  8052     04BC  00F7               	movwf	___lwdiv@divisor+1
  8053     04BD  0825               	movf	change_time@new_time+5,w
  8054     04BE  00F9               	movwf	___lwdiv@dividend+1
  8055     04BF  0824               	movf	change_time@new_time+4,w
  8056     04C0  00F8               	movwf	___lwdiv@dividend
  8057     04C1  160A  118A  2520  120A  118A  	fcall	___lwdiv
  8058     04C6  0876               	movf	?___lwdiv,w
  8059     04C7  1283               	bcf	3,5	;RP0=0, select bank0
  8060     04C8  1303               	bcf	3,6	;RP1=0, select bank0
  8061     04C9  00D2               	movwf	??_change_time+2
  8062     04CA  3003               	movlw	3
  8063     04CB                     u4645:
  8064     04CB  1003               	clrc
  8065     04CC  0DD2               	rlf	??_change_time+2,f
  8066     04CD  3EFF               	addlw	-1
  8067     04CE  1D03               	skipz
  8068     04CF  2CCB               	goto	u4645
  8069     04D0  1003               	clrc
  8070     04D1  0D52               	rlf	??_change_time+2,w
  8071     04D2  0450               	iorwf	??_change_time,w
  8072     04D3  00D4               	movwf	change_time@buffer
  8073     04D4                     l4790:
  8074                           
  8075                           ;car_black_box.c: 697:             clock_reg[2] = (clock_reg[2] & 0x80) | buffer;
  8076     04D4  0828               	movf	_clock_reg+2,w
  8077     04D5  3980               	andlw	128
  8078     04D6  0454               	iorwf	change_time@buffer,w
  8079     04D7  00A8               	movwf	_clock_reg+2
  8080     04D8                     l4792:
  8081                           
  8082                           ;car_black_box.c: 698:             write_ds1307(0x00, clock_reg[2]);
  8083     04D8  0828               	movf	_clock_reg+2,w
  8084     04D9  00F3               	movwf	write_ds1307@data
  8085     04DA  3000               	movlw	0
  8086     04DB  160A  118A  2200  120A  118A  	fcall	_write_ds1307
  8087     04E0                     l4794:
  8088                           
  8089                           ;car_black_box.c: 701:             clcd_write(0x01, 0);
  8090     04E0  01F2               	clrf	clcd_write@mode
  8091     04E1  3001               	movlw	1
  8092     04E2  160A  118A  221E  120A  118A  	fcall	_clcd_write
  8093     04E7                     l4796:
  8094                           
  8095                           ;car_black_box.c: 702:             clcd_print("Time changed", (0x80 + 2));
  8096     04E7  3063               	movlw	low (STR_50| (0+32768))
  8097     04E8  00F6               	movwf	clcd_print@str
  8098     04E9  3088               	movlw	high (STR_50| (0+32768))
  8099     04EA  00F7               	movwf	clcd_print@str+1
  8100     04EB  3082               	movlw	130
  8101     04EC  00F8               	movwf	clcd_print@addr
  8102     04ED  160A  118A  23A2  120A  118A  	fcall	_clcd_print
  8103     04F2                     l4798:
  8104                           
  8105                           ;car_black_box.c: 703:             clcd_print("Successfully", (0xC0 + 2));
  8106     04F2  308A               	movlw	low (STR_51| (0+32768))
  8107     04F3  00F6               	movwf	clcd_print@str
  8108     04F4  3088               	movlw	high (STR_51| (0+32768))
  8109     04F5  00F7               	movwf	clcd_print@str+1
  8110     04F6  30C2               	movlw	194
  8111     04F7  00F8               	movwf	clcd_print@addr
  8112     04F8  160A  118A  23A2  120A  118A  	fcall	_clcd_print
  8113     04FD                     l4800:
  8114                           
  8115                           ;car_black_box.c: 705:             t_done = 1;
  8116     04FD  1283               	bcf	3,5	;RP0=0, select bank0
  8117     04FE  1303               	bcf	3,6	;RP1=0, select bank0
  8118     04FF  01B7               	clrf	change_time@t_done
  8119     0500  0AB7               	incf	change_time@t_done,f
  8120     0501                     l4802:
  8121                           
  8122                           ;car_black_box.c: 706:             _delay((unsigned long)((1000)*(20000000/4000.0)));
  8123     0501  301A               	movlw	26
  8124     0502  1283               	bcf	3,5	;RP0=0, select bank0
  8125     0503  1303               	bcf	3,6	;RP1=0, select bank0
  8126     0504  00D2               	movwf	??_change_time+2
  8127     0505  305E               	movlw	94
  8128     0506  00D1               	movwf	??_change_time+1
  8129     0507  306D               	movlw	109
  8130     0508  00D0               	movwf	??_change_time
  8131     0509                     u5107:
  8132     0509  0BD0               	decfsz	??_change_time,f
  8133     050A  2D09               	goto	u5107
  8134     050B  0BD1               	decfsz	??_change_time+1,f
  8135     050C  2D09               	goto	u5107
  8136     050D  0BD2               	decfsz	??_change_time+2,f
  8137     050E  2D09               	goto	u5107
  8138     050F  2D10               	nop2
  8139     0510                     l4804:
  8140                           
  8141                           ;car_black_box.c: 707:             return 0x0C;
  8142     0510  300C               	movlw	12
  8143     0511  2E45               	goto	l471
  8144     0512                     l4810:
  8145     0512  0853               	movf	change_time@key,w
  8146                           
  8147                           ; Switch size 1, requested type "simple"
  8148                           ; Number of cases is 3, Range of values is 47 to 128
  8149                           ; switch strategies available:
  8150                           ; Name         Instructions Cycles
  8151                           ; simple_byte           10     6 (average)
  8152                           ; direct_byte          257    11 (fixed)
  8153                           ; jumptable            263     9 (fixed)
  8154                           ;	Chosen strategy is simple_byte
  8155     0513  3A2F               	xorlw	47	; case 47
  8156     0514  1903               	skipnz
  8157     0515  2C0F               	goto	l4774
  8158     0516  3A18               	xorlw	24	; case 55
  8159     0517  1903               	skipnz
  8160     0518  2C03               	goto	l4772
  8161     0519  3AB7               	xorlw	183	; case 128
  8162     051A  1903               	skipnz
  8163     051B  2C27               	goto	l4776
  8164     051C  2D1D               	goto	l4812
  8165     051D                     l4812:
  8166                           
  8167                           ;car_black_box.c: 713:     if (new_time[0] > 23)
  8168     051D  3000               	movlw	0
  8169     051E  0221               	subwf	change_time@new_time+1,w
  8170     051F  3018               	movlw	24
  8171     0520  1903               	skipnz
  8172     0521  0220               	subwf	change_time@new_time,w
  8173     0522  1C03               	skipc
  8174     0523  2D25               	goto	u4651
  8175     0524  2D26               	goto	u4650
  8176     0525                     u4651:
  8177     0525  2D28               	goto	l4816
  8178     0526                     u4650:
  8179     0526                     l4814:
  8180                           
  8181                           ;car_black_box.c: 714:         new_time[0] = 0;
  8182     0526  01A0               	clrf	change_time@new_time
  8183     0527  01A1               	clrf	change_time@new_time+1
  8184     0528                     l4816:
  8185                           
  8186                           ;car_black_box.c: 715:     if (new_time[1] > 59)
  8187     0528  3000               	movlw	0
  8188     0529  0223               	subwf	change_time@new_time+3,w
  8189     052A  303C               	movlw	60
  8190     052B  1903               	skipnz
  8191     052C  0222               	subwf	change_time@new_time+2,w
  8192     052D  1C03               	skipc
  8193     052E  2D30               	goto	u4661
  8194     052F  2D31               	goto	u4660
  8195     0530                     u4661:
  8196     0530  2D33               	goto	l4820
  8197     0531                     u4660:
  8198     0531                     l4818:
  8199                           
  8200                           ;car_black_box.c: 716:         new_time[1] = 0;
  8201     0531  01A2               	clrf	change_time@new_time+2
  8202     0532  01A3               	clrf	change_time@new_time+3
  8203     0533                     l4820:
  8204                           
  8205                           ;car_black_box.c: 717:     if (new_time[2] > 59)
  8206     0533  3000               	movlw	0
  8207     0534  0225               	subwf	change_time@new_time+5,w
  8208     0535  303C               	movlw	60
  8209     0536  1903               	skipnz
  8210     0537  0224               	subwf	change_time@new_time+4,w
  8211     0538  1C03               	skipc
  8212     0539  2D3B               	goto	u4671
  8213     053A  2D3C               	goto	u4670
  8214     053B                     u4671:
  8215     053B  2D3E               	goto	l4824
  8216     053C                     u4670:
  8217     053C                     l4822:
  8218                           
  8219                           ;car_black_box.c: 718:         new_time[2] = 0;
  8220     053C  01A4               	clrf	change_time@new_time+4
  8221     053D  01A5               	clrf	change_time@new_time+5
  8222     053E                     l4824:
  8223                           
  8224                           ;car_black_box.c: 722:     if (wait++ == 1)
  8225     053E  3001               	movlw	1
  8226     053F  00FF               	movwf	btemp+1
  8227     0540  087F               	movf	btemp+1,w
  8228     0541  07B9               	addwf	change_time@wait,f
  8229     0542  3002               	movlw	2
  8230     0543  0639               	xorwf	change_time@wait,w
  8231     0544  1D03               	btfss	3,2
  8232     0545  2D47               	goto	u4681
  8233     0546  2D48               	goto	u4680
  8234     0547                     u4681:
  8235     0547  2D9A               	goto	l4850
  8236     0548                     u4680:
  8237     0548                     l4826:
  8238                           
  8239                           ;car_black_box.c: 723:     {;car_black_box.c: 724:         wait = 0;
  8240     0548  01B9               	clrf	change_time@wait
  8241     0549                     l4828:
  8242                           
  8243                           ;car_black_box.c: 725:         blink = !blink;
  8244     0549  0838               	movf	change_time@blink,w
  8245     054A  1903               	btfsc	3,2
  8246     054B  2D4D               	goto	u4691
  8247     054C  2D4F               	goto	u4690
  8248     054D                     u4691:
  8249     054D  3001               	movlw	1
  8250     054E  2D50               	goto	u4700
  8251     054F                     u4690:
  8252     054F  3000               	movlw	0
  8253     0550                     u4700:
  8254     0550  00B8               	movwf	change_time@blink
  8255     0551                     l4830:
  8256                           
  8257                           ;car_black_box.c: 728:         if (blink)
  8258     0551  0838               	movf	change_time@blink,w
  8259     0552  1903               	btfsc	3,2
  8260     0553  2D55               	goto	u4711
  8261     0554  2D56               	goto	u4710
  8262     0555                     u4711:
  8263     0555  2D9A               	goto	l4850
  8264     0556                     u4710:
  8265     0556  2D8A               	goto	l4848
  8266     0557                     l4834:
  8267                           
  8268                           ;car_black_box.c: 733:                     clcd_print("  ", (0xC0 + 0));
  8269     0557  3033               	movlw	low ((STR_43+15)| (0+32768))
  8270     0558  00F6               	movwf	clcd_print@str
  8271     0559  3087               	movlw	high ((STR_43+15)| (0+32768))
  8272     055A  00F7               	movwf	clcd_print@str+1
  8273     055B  30C0               	movlw	192
  8274     055C  00F8               	movwf	clcd_print@addr
  8275     055D  160A  118A  23A2  120A  118A  	fcall	_clcd_print
  8276     0562                     l4836:
  8277                           
  8278                           ;car_black_box.c: 734:                     _delay((unsigned long)((160)*(20000000/4000.0
      +                          )));
  8279     0562  3005               	movlw	5
  8280     0563  1283               	bcf	3,5	;RP0=0, select bank0
  8281     0564  1303               	bcf	3,6	;RP1=0, select bank0
  8282     0565  00D2               	movwf	??_change_time+2
  8283     0566  300F               	movlw	15
  8284     0567  00D1               	movwf	??_change_time+1
  8285     0568  30F0               	movlw	240
  8286     0569  00D0               	movwf	??_change_time
  8287     056A                     u5117:
  8288     056A  0BD0               	decfsz	??_change_time,f
  8289     056B  2D6A               	goto	u5117
  8290     056C  0BD1               	decfsz	??_change_time+1,f
  8291     056D  2D6A               	goto	u5117
  8292     056E  0BD2               	decfsz	??_change_time+2,f
  8293     056F  2D6A               	goto	u5117
  8294     0570  0000               	nop
  8295                           
  8296                           ;car_black_box.c: 735:                     break;
  8297     0571  2D9A               	goto	l4850
  8298     0572                     l4838:
  8299                           
  8300                           ;car_black_box.c: 737:                     clcd_print("  ", (0xC0 + 3));
  8301     0572  3033               	movlw	low ((STR_43+15)| (0+32768))
  8302     0573  00F6               	movwf	clcd_print@str
  8303     0574  3087               	movlw	high ((STR_43+15)| (0+32768))
  8304     0575  00F7               	movwf	clcd_print@str+1
  8305     0576  30C3               	movlw	195
  8306     0577  00F8               	movwf	clcd_print@addr
  8307     0578  160A  118A  23A2  120A  118A  	fcall	_clcd_print
  8308     057D  2D62               	goto	l4836
  8309     057E                     l4842:
  8310                           
  8311                           ;car_black_box.c: 741:                     clcd_print("  ", (0xC0 + 6));
  8312     057E  3033               	movlw	low ((STR_43+15)| (0+32768))
  8313     057F  00F6               	movwf	clcd_print@str
  8314     0580  3087               	movlw	high ((STR_43+15)| (0+32768))
  8315     0581  00F7               	movwf	clcd_print@str+1
  8316     0582  30C6               	movlw	198
  8317     0583  00F8               	movwf	clcd_print@addr
  8318     0584  160A  118A  23A2  120A  118A  	fcall	_clcd_print
  8319     0589  2D62               	goto	l4836
  8320     058A                     l4848:
  8321                           
  8322                           ; Switch on 2 bytes has been partitioned into a top level switch of size 1, and 1 sub-sw
      +                          itches
  8323                           ; Switch size 1, requested type "simple"
  8324                           ; Number of cases is 1, Range of values is 0 to 0
  8325                           ; switch strategies available:
  8326                           ; Name         Instructions Cycles
  8327                           ; simple_byte            4     3 (average)
  8328                           ; direct_byte           11     8 (fixed)
  8329                           ; jumptable            260     6 (fixed)
  8330                           ;	Chosen strategy is simple_byte
  8331     058A  082C               	movf	change_time@blink_pos+1,w
  8332     058B  3A00               	xorlw	0	; case 0
  8333     058C  1903               	skipnz
  8334     058D  2D8F               	goto	l5128
  8335     058E  2D9A               	goto	l4850
  8336     058F                     l5128:
  8337                           
  8338                           ; Switch size 1, requested type "simple"
  8339                           ; Number of cases is 3, Range of values is 0 to 2
  8340                           ; switch strategies available:
  8341                           ; Name         Instructions Cycles
  8342                           ; simple_byte           10     6 (average)
  8343                           ; direct_byte           17     8 (fixed)
  8344                           ; jumptable            260     6 (fixed)
  8345                           ;	Chosen strategy is simple_byte
  8346     058F  082B               	movf	change_time@blink_pos,w
  8347     0590  3A00               	xorlw	0	; case 0
  8348     0591  1903               	skipnz
  8349     0592  2D57               	goto	l4834
  8350     0593  3A01               	xorlw	1	; case 1
  8351     0594  1903               	skipnz
  8352     0595  2D72               	goto	l4838
  8353     0596  3A03               	xorlw	3	; case 2
  8354     0597  1903               	skipnz
  8355     0598  2D7E               	goto	l4842
  8356     0599  2D9A               	goto	l4850
  8357     059A                     l4850:
  8358                           
  8359                           ;car_black_box.c: 751:     clcd_putch(new_time[0] / 10 + '0', (0xC0 + 0));
  8360     059A  30C0               	movlw	192
  8361     059B  1283               	bcf	3,5	;RP0=0, select bank0
  8362     059C  1303               	bcf	3,6	;RP1=0, select bank0
  8363     059D  00CD               	movwf	clcd_putch@addr
  8364     059E  300A               	movlw	10
  8365     059F  00F6               	movwf	___lwdiv@divisor
  8366     05A0  3000               	movlw	0
  8367     05A1  00F7               	movwf	___lwdiv@divisor+1
  8368     05A2  0821               	movf	change_time@new_time+1,w
  8369     05A3  00F9               	movwf	___lwdiv@dividend+1
  8370     05A4  0820               	movf	change_time@new_time,w
  8371     05A5  00F8               	movwf	___lwdiv@dividend
  8372     05A6  160A  118A  2520  120A  118A  	fcall	___lwdiv
  8373     05AB  0876               	movf	?___lwdiv,w
  8374     05AC  3E30               	addlw	48
  8375     05AD  160A  118A  21D6  120A  118A  	fcall	_clcd_putch
  8376                           
  8377                           ;car_black_box.c: 752:     clcd_putch(new_time[0] % 10 + '0', (0xC0 + 1));
  8378     05B2  30C1               	movlw	193
  8379     05B3  1283               	bcf	3,5	;RP0=0, select bank0
  8380     05B4  1303               	bcf	3,6	;RP1=0, select bank0
  8381     05B5  00CD               	movwf	clcd_putch@addr
  8382     05B6  300A               	movlw	10
  8383     05B7  00C8               	movwf	___lwmod@divisor
  8384     05B8  3000               	movlw	0
  8385     05B9  00C9               	movwf	___lwmod@divisor+1
  8386     05BA  0821               	movf	change_time@new_time+1,w
  8387     05BB  00CB               	movwf	___lwmod@dividend+1
  8388     05BC  0820               	movf	change_time@new_time,w
  8389     05BD  00CA               	movwf	___lwmod@dividend
  8390     05BE  160A  118A  24A5  120A  118A  	fcall	___lwmod
  8391     05C3  1283               	bcf	3,5	;RP0=0, select bank0
  8392     05C4  1303               	bcf	3,6	;RP1=0, select bank0
  8393     05C5  0848               	movf	?___lwmod,w
  8394     05C6  3E30               	addlw	48
  8395     05C7  160A  118A  21D6  120A  118A  	fcall	_clcd_putch
  8396     05CC                     l4852:
  8397                           
  8398                           ;car_black_box.c: 753:     clcd_putch(':', (0xC0 + 2));
  8399     05CC  30C2               	movlw	194
  8400     05CD  1283               	bcf	3,5	;RP0=0, select bank0
  8401     05CE  1303               	bcf	3,6	;RP1=0, select bank0
  8402     05CF  00CD               	movwf	clcd_putch@addr
  8403     05D0  303A               	movlw	58
  8404     05D1  160A  118A  21D6  120A  118A  	fcall	_clcd_putch
  8405     05D6                     l4854:
  8406                           
  8407                           ;car_black_box.c: 756:     clcd_putch(new_time[1] / 10 + '0', (0xC0 + 3));
  8408     05D6  30C3               	movlw	195
  8409     05D7  1283               	bcf	3,5	;RP0=0, select bank0
  8410     05D8  1303               	bcf	3,6	;RP1=0, select bank0
  8411     05D9  00CD               	movwf	clcd_putch@addr
  8412     05DA  300A               	movlw	10
  8413     05DB  00F6               	movwf	___lwdiv@divisor
  8414     05DC  3000               	movlw	0
  8415     05DD  00F7               	movwf	___lwdiv@divisor+1
  8416     05DE  0823               	movf	change_time@new_time+3,w
  8417     05DF  00F9               	movwf	___lwdiv@dividend+1
  8418     05E0  0822               	movf	change_time@new_time+2,w
  8419     05E1  00F8               	movwf	___lwdiv@dividend
  8420     05E2  160A  118A  2520  120A  118A  	fcall	___lwdiv
  8421     05E7  0876               	movf	?___lwdiv,w
  8422     05E8  3E30               	addlw	48
  8423     05E9  160A  118A  21D6  120A  118A  	fcall	_clcd_putch
  8424     05EE                     l4856:
  8425                           
  8426                           ;car_black_box.c: 757:     clcd_putch(new_time[1] % 10 + '0', (0xC0 + 4));
  8427     05EE  30C4               	movlw	196
  8428     05EF  1283               	bcf	3,5	;RP0=0, select bank0
  8429     05F0  1303               	bcf	3,6	;RP1=0, select bank0
  8430     05F1  00CD               	movwf	clcd_putch@addr
  8431     05F2  300A               	movlw	10
  8432     05F3  00C8               	movwf	___lwmod@divisor
  8433     05F4  3000               	movlw	0
  8434     05F5  00C9               	movwf	___lwmod@divisor+1
  8435     05F6  0823               	movf	change_time@new_time+3,w
  8436     05F7  00CB               	movwf	___lwmod@dividend+1
  8437     05F8  0822               	movf	change_time@new_time+2,w
  8438     05F9  00CA               	movwf	___lwmod@dividend
  8439     05FA  160A  118A  24A5  120A  118A  	fcall	___lwmod
  8440     05FF  1283               	bcf	3,5	;RP0=0, select bank0
  8441     0600  1303               	bcf	3,6	;RP1=0, select bank0
  8442     0601  0848               	movf	?___lwmod,w
  8443     0602  3E30               	addlw	48
  8444     0603  160A  118A  21D6  120A  118A  	fcall	_clcd_putch
  8445     0608                     l4858:
  8446                           
  8447                           ;car_black_box.c: 758:     clcd_putch(':', (0xC0 + 5));
  8448     0608  30C5               	movlw	197
  8449     0609  1283               	bcf	3,5	;RP0=0, select bank0
  8450     060A  1303               	bcf	3,6	;RP1=0, select bank0
  8451     060B  00CD               	movwf	clcd_putch@addr
  8452     060C  303A               	movlw	58
  8453     060D  160A  118A  21D6  120A  118A  	fcall	_clcd_putch
  8454                           
  8455                           ;car_black_box.c: 761:     clcd_putch(new_time[2] / 10 + '0', (0xC0 + 6));
  8456     0612  30C6               	movlw	198
  8457     0613  1283               	bcf	3,5	;RP0=0, select bank0
  8458     0614  1303               	bcf	3,6	;RP1=0, select bank0
  8459     0615  00CD               	movwf	clcd_putch@addr
  8460     0616  300A               	movlw	10
  8461     0617  00F6               	movwf	___lwdiv@divisor
  8462     0618  3000               	movlw	0
  8463     0619  00F7               	movwf	___lwdiv@divisor+1
  8464     061A  0825               	movf	change_time@new_time+5,w
  8465     061B  00F9               	movwf	___lwdiv@dividend+1
  8466     061C  0824               	movf	change_time@new_time+4,w
  8467     061D  00F8               	movwf	___lwdiv@dividend
  8468     061E  160A  118A  2520  120A  118A  	fcall	___lwdiv
  8469     0623  0876               	movf	?___lwdiv,w
  8470     0624  3E30               	addlw	48
  8471     0625  160A  118A  21D6  120A  118A  	fcall	_clcd_putch
  8472                           
  8473                           ;car_black_box.c: 762:     clcd_putch(new_time[2] % 10 + '0', (0xC0 + 7));
  8474     062A  30C7               	movlw	199
  8475     062B  1283               	bcf	3,5	;RP0=0, select bank0
  8476     062C  1303               	bcf	3,6	;RP1=0, select bank0
  8477     062D  00CD               	movwf	clcd_putch@addr
  8478     062E  300A               	movlw	10
  8479     062F  00C8               	movwf	___lwmod@divisor
  8480     0630  3000               	movlw	0
  8481     0631  00C9               	movwf	___lwmod@divisor+1
  8482     0632  0825               	movf	change_time@new_time+5,w
  8483     0633  00CB               	movwf	___lwmod@dividend+1
  8484     0634  0824               	movf	change_time@new_time+4,w
  8485     0635  00CA               	movwf	___lwmod@dividend
  8486     0636  160A  118A  24A5  120A  118A  	fcall	___lwmod
  8487     063B  1283               	bcf	3,5	;RP0=0, select bank0
  8488     063C  1303               	bcf	3,6	;RP1=0, select bank0
  8489     063D  0848               	movf	?___lwmod,w
  8490     063E  3E30               	addlw	48
  8491     063F  160A  118A  21D6  120A  118A  	fcall	_clcd_putch
  8492     0644  2C01               	goto	l4768
  8493     0645                     l471:
  8494     0645  0008               	return
  8495     0646                     __end_of_change_time:
  8496                           
  8497                           	psect	text31
  8498     1200                     __ptext31:	
  8499 ;; *************** function _write_ds1307 *****************
  8500 ;; Defined at:
  8501 ;;		line 29 in file "ds1307.c"
  8502 ;; Parameters:    Size  Location     Type
  8503 ;;  addr            1    wreg     unsigned char 
  8504 ;;  data            1    3[COMMON] unsigned char 
  8505 ;; Auto vars:     Size  Location     Type
  8506 ;;  addr            1    4[COMMON] unsigned char 
  8507 ;; Return value:  Size  Location     Type
  8508 ;;                  1    wreg      void 
  8509 ;; Registers used:
  8510 ;;		wreg, status,2, status,0, pclath, cstack
  8511 ;; Tracked objects:
  8512 ;;		On entry : 0/0
  8513 ;;		On exit  : 0/0
  8514 ;;		Unchanged: 0/0
  8515 ;; Data sizes:     COMMON   BANK0   BANK1   BANK3   BANK2
  8516 ;;      Params:         1       0       0       0       0
  8517 ;;      Locals:         1       0       0       0       0
  8518 ;;      Temps:          0       0       0       0       0
  8519 ;;      Totals:         2       0       0       0       0
  8520 ;;Total ram usage:        2 bytes
  8521 ;; Hardware stack levels used: 1
  8522 ;; Hardware stack levels required when called: 3
  8523 ;; This function calls:
  8524 ;;		_i2c_start
  8525 ;;		_i2c_stop
  8526 ;;		_i2c_write
  8527 ;; This function is called by:
  8528 ;;		_init_ds1307
  8529 ;;		_change_time
  8530 ;; This function uses a non-reentrant model
  8531 ;;
  8532                           
  8533     1200                     _write_ds1307:	
  8534                           ;psect for function _write_ds1307
  8535                           
  8536                           
  8537                           ;incstack = 0
  8538                           ; Regs used in _write_ds1307: [wreg+status,2+status,0+pclath+cstack]
  8539                           ;write_ds1307@addr stored from wreg
  8540     1200  00F4               	movwf	write_ds1307@addr
  8541     1201                     l3890:
  8542                           
  8543                           ;ds1307.c: 29: void write_ds1307(unsigned char addr, unsigned char data);ds1307.c: 30: {
      +                          ;ds1307.c: 31:     i2c_start();
  8544     1201  160A  118A  2135  160A  118A  	fcall	_i2c_start
  8545                           
  8546                           ;ds1307.c: 32:     i2c_write(0b11010000);
  8547     1206  30D0               	movlw	208
  8548     1207  160A  118A  2147  160A  118A  	fcall	_i2c_write
  8549                           
  8550                           ;ds1307.c: 33:     i2c_write(addr);
  8551     120C  0874               	movf	write_ds1307@addr,w
  8552     120D  160A  118A  2147  160A  118A  	fcall	_i2c_write
  8553                           
  8554                           ;ds1307.c: 34:     i2c_write(data);
  8555     1212  0873               	movf	write_ds1307@data,w
  8556     1213  160A  118A  2147  160A  118A  	fcall	_i2c_write
  8557                           
  8558                           ;ds1307.c: 35:     i2c_stop();
  8559     1218  160A  118A  213E  160A  118A  	fcall	_i2c_stop
  8560     121D                     l223:
  8561     121D  0008               	return
  8562     121E                     __end_of_write_ds1307:
  8563                           
  8564                           	psect	text32
  8565     15AE                     __ptext32:	
  8566 ;; *************** function _get_time *****************
  8567 ;; Defined at:
  8568 ;;		line 18 in file "car_black_box.c"
  8569 ;; Parameters:    Size  Location     Type
  8570 ;;		None
  8571 ;; Auto vars:     Size  Location     Type
  8572 ;;		None
  8573 ;; Return value:  Size  Location     Type
  8574 ;;                  1    wreg      void 
  8575 ;; Registers used:
  8576 ;;		wreg, status,2, status,0, pclath, cstack
  8577 ;; Tracked objects:
  8578 ;;		On entry : 0/0
  8579 ;;		On exit  : 0/0
  8580 ;;		Unchanged: 0/0
  8581 ;; Data sizes:     COMMON   BANK0   BANK1   BANK3   BANK2
  8582 ;;      Params:         0       0       0       0       0
  8583 ;;      Locals:         0       0       0       0       0
  8584 ;;      Temps:          1       0       0       0       0
  8585 ;;      Totals:         1       0       0       0       0
  8586 ;;Total ram usage:        1 bytes
  8587 ;; Hardware stack levels used: 1
  8588 ;; Hardware stack levels required when called: 5
  8589 ;; This function calls:
  8590 ;;		_read_ds1307
  8591 ;; This function is called by:
  8592 ;;		_display_time
  8593 ;;		_log_car_event
  8594 ;;		_change_time
  8595 ;; This function uses a non-reentrant model
  8596 ;;
  8597                           
  8598     15AE                     _get_time:	
  8599                           ;psect for function _get_time
  8600                           
  8601     15AE                     l3892:	
  8602                           ;incstack = 0
  8603                           ; Regs used in _get_time: [wreg+status,2+status,0+pclath+cstack]
  8604                           
  8605                           
  8606                           ;car_black_box.c: 21:     clock_reg[0] = read_ds1307(0x02);
  8607     15AE  3002               	movlw	2
  8608     15AF  160A  118A  22F4  160A  118A  	fcall	_read_ds1307
  8609     15B4  1283               	bcf	3,5	;RP0=0, select bank0
  8610     15B5  1303               	bcf	3,6	;RP1=0, select bank0
  8611     15B6  00A6               	movwf	_clock_reg
  8612                           
  8613                           ;car_black_box.c: 24:     clock_reg[1] = read_ds1307(0x01);
  8614     15B7  3001               	movlw	1
  8615     15B8  160A  118A  22F4  160A  118A  	fcall	_read_ds1307
  8616     15BD  1283               	bcf	3,5	;RP0=0, select bank0
  8617     15BE  1303               	bcf	3,6	;RP1=0, select bank0
  8618     15BF  00A7               	movwf	_clock_reg+1
  8619                           
  8620                           ;car_black_box.c: 27:     clock_reg[2] = read_ds1307(0x00);
  8621     15C0  3000               	movlw	0
  8622     15C1  160A  118A  22F4  160A  118A  	fcall	_read_ds1307
  8623     15C6  1283               	bcf	3,5	;RP0=0, select bank0
  8624     15C7  1303               	bcf	3,6	;RP1=0, select bank0
  8625     15C8  00A8               	movwf	_clock_reg+2
  8626     15C9                     l3894:
  8627                           
  8628                           ;car_black_box.c: 30:     time[0] = ((clock_reg[0] >> 4) & 0x03) + '0';
  8629     15C9  0826               	movf	_clock_reg,w
  8630     15CA  00F6               	movwf	??_get_time
  8631     15CB  3004               	movlw	4
  8632     15CC                     u3375:
  8633     15CC  1003               	clrc
  8634     15CD  0CF6               	rrf	??_get_time,f
  8635     15CE  3EFF               	addlw	-1
  8636     15CF  1D03               	skipz
  8637     15D0  2DCC               	goto	u3375
  8638     15D1  0876               	movf	??_get_time,w
  8639     15D2  3903               	andlw	3
  8640     15D3  3E30               	addlw	48
  8641     15D4  00BE               	movwf	_time
  8642     15D5                     l3896:
  8643                           
  8644                           ;car_black_box.c: 31:     time[1] = (clock_reg[0] & 0x0F) + '0';
  8645     15D5  0826               	movf	_clock_reg,w
  8646     15D6  390F               	andlw	15
  8647     15D7  3E30               	addlw	48
  8648     15D8  00BF               	movwf	_time+1
  8649     15D9                     l3898:
  8650                           
  8651                           ;car_black_box.c: 34:     time[2] = ((clock_reg[1] >> 4) & 0x07) + '0';
  8652     15D9  0827               	movf	_clock_reg+1,w
  8653     15DA  00F6               	movwf	??_get_time
  8654     15DB  3004               	movlw	4
  8655     15DC                     u3385:
  8656     15DC  1003               	clrc
  8657     15DD  0CF6               	rrf	??_get_time,f
  8658     15DE  3EFF               	addlw	-1
  8659     15DF  1D03               	skipz
  8660     15E0  2DDC               	goto	u3385
  8661     15E1  0876               	movf	??_get_time,w
  8662     15E2  3907               	andlw	7
  8663     15E3  3E30               	addlw	48
  8664     15E4  00C0               	movwf	_time+2
  8665     15E5                     l3900:
  8666                           
  8667                           ;car_black_box.c: 35:     time[3] = (clock_reg[1] & 0x0F) + '0';
  8668     15E5  0827               	movf	_clock_reg+1,w
  8669     15E6  390F               	andlw	15
  8670     15E7  3E30               	addlw	48
  8671     15E8  00C1               	movwf	_time+3
  8672     15E9                     l3902:
  8673                           
  8674                           ;car_black_box.c: 38:     time[4] = ((clock_reg[2] >> 4) & 0x07) + '0';
  8675     15E9  0828               	movf	_clock_reg+2,w
  8676     15EA  00F6               	movwf	??_get_time
  8677     15EB  3004               	movlw	4
  8678     15EC                     u3395:
  8679     15EC  1003               	clrc
  8680     15ED  0CF6               	rrf	??_get_time,f
  8681     15EE  3EFF               	addlw	-1
  8682     15EF  1D03               	skipz
  8683     15F0  2DEC               	goto	u3395
  8684     15F1  0876               	movf	??_get_time,w
  8685     15F2  3907               	andlw	7
  8686     15F3  3E30               	addlw	48
  8687     15F4  00C2               	movwf	_time+4
  8688     15F5                     l3904:
  8689                           
  8690                           ;car_black_box.c: 39:     time[5] = (clock_reg[2] & 0x0F) + '0';
  8691     15F5  0828               	movf	_clock_reg+2,w
  8692     15F6  390F               	andlw	15
  8693     15F7  3E30               	addlw	48
  8694     15F8  00C3               	movwf	_time+5
  8695     15F9                     l3906:
  8696                           
  8697                           ;car_black_box.c: 40:     time[6] = '\0';
  8698     15F9  01C4               	clrf	_time+6
  8699     15FA                     l342:
  8700     15FA  0008               	return
  8701     15FB                     __end_of_get_time:
  8702                           
  8703                           	psect	text33
  8704     12F4                     __ptext33:	
  8705 ;; *************** function _read_ds1307 *****************
  8706 ;; Defined at:
  8707 ;;		line 14 in file "ds1307.c"
  8708 ;; Parameters:    Size  Location     Type
  8709 ;;  addr            1    wreg     unsigned char 
  8710 ;; Auto vars:     Size  Location     Type
  8711 ;;  addr            1    4[COMMON] unsigned char 
  8712 ;;  data            1    5[COMMON] unsigned char 
  8713 ;; Return value:  Size  Location     Type
  8714 ;;                  1    wreg      unsigned char 
  8715 ;; Registers used:
  8716 ;;		wreg, status,2, status,0, pclath, cstack
  8717 ;; Tracked objects:
  8718 ;;		On entry : 0/0
  8719 ;;		On exit  : 0/0
  8720 ;;		Unchanged: 0/0
  8721 ;; Data sizes:     COMMON   BANK0   BANK1   BANK3   BANK2
  8722 ;;      Params:         0       0       0       0       0
  8723 ;;      Locals:         2       0       0       0       0
  8724 ;;      Temps:          0       0       0       0       0
  8725 ;;      Totals:         2       0       0       0       0
  8726 ;;Total ram usage:        2 bytes
  8727 ;; Hardware stack levels used: 1
  8728 ;; Hardware stack levels required when called: 4
  8729 ;; This function calls:
  8730 ;;		_i2c_read
  8731 ;;		_i2c_rep_start
  8732 ;;		_i2c_start
  8733 ;;		_i2c_stop
  8734 ;;		_i2c_write
  8735 ;; This function is called by:
  8736 ;;		_init_ds1307
  8737 ;;		_get_time
  8738 ;; This function uses a non-reentrant model
  8739 ;;
  8740                           
  8741     12F4                     _read_ds1307:	
  8742                           ;psect for function _read_ds1307
  8743                           
  8744                           
  8745                           ;incstack = 0
  8746                           ; Regs used in _read_ds1307: [wreg+status,2+status,0+pclath+cstack]
  8747                           ;read_ds1307@addr stored from wreg
  8748     12F4  00F4               	movwf	read_ds1307@addr
  8749     12F5                     l3848:
  8750                           
  8751                           ;ds1307.c: 14: unsigned char read_ds1307(unsigned char addr);ds1307.c: 15: {;ds1307.c: 1
      +                          6:     unsigned char data;;ds1307.c: 18:     i2c_start();
  8752     12F5  160A  118A  2135  160A  118A  	fcall	_i2c_start
  8753                           
  8754                           ;ds1307.c: 19:     i2c_write(0b11010000);
  8755     12FA  30D0               	movlw	208
  8756     12FB  160A  118A  2147  160A  118A  	fcall	_i2c_write
  8757                           
  8758                           ;ds1307.c: 20:     i2c_write(addr);
  8759     1300  0874               	movf	read_ds1307@addr,w
  8760     1301  160A  118A  2147  160A  118A  	fcall	_i2c_write
  8761                           
  8762                           ;ds1307.c: 21:     i2c_rep_start();
  8763     1306  160A  118A  2152  160A  118A  	fcall	_i2c_rep_start
  8764                           
  8765                           ;ds1307.c: 22:     i2c_write(0b11010001);
  8766     130B  30D1               	movlw	209
  8767     130C  160A  118A  2147  160A  118A  	fcall	_i2c_write
  8768                           
  8769                           ;ds1307.c: 23:     data = i2c_read(0);
  8770     1311  3000               	movlw	0
  8771     1312  160A  118A  223E  160A  118A  	fcall	_i2c_read
  8772     1317  00F5               	movwf	read_ds1307@data
  8773                           
  8774                           ;ds1307.c: 24:     i2c_stop();
  8775     1318  160A  118A  213E  160A  118A  	fcall	_i2c_stop
  8776     131D                     l3850:
  8777                           
  8778                           ;ds1307.c: 26:     return data;
  8779     131D  0875               	movf	read_ds1307@data,w
  8780     131E                     l220:
  8781     131E  0008               	return
  8782     131F                     __end_of_read_ds1307:
  8783                           
  8784                           	psect	text34
  8785     1152                     __ptext34:	
  8786 ;; *************** function _i2c_rep_start *****************
  8787 ;; Defined at:
  8788 ;;		line 28 in file "i2c.c"
  8789 ;; Parameters:    Size  Location     Type
  8790 ;;		None
  8791 ;; Auto vars:     Size  Location     Type
  8792 ;;		None
  8793 ;; Return value:  Size  Location     Type
  8794 ;;                  1    wreg      void 
  8795 ;; Registers used:
  8796 ;;		wreg, status,2, status,0, pclath, cstack
  8797 ;; Tracked objects:
  8798 ;;		On entry : 0/0
  8799 ;;		On exit  : 0/0
  8800 ;;		Unchanged: 0/0
  8801 ;; Data sizes:     COMMON   BANK0   BANK1   BANK3   BANK2
  8802 ;;      Params:         0       0       0       0       0
  8803 ;;      Locals:         0       0       0       0       0
  8804 ;;      Temps:          0       0       0       0       0
  8805 ;;      Totals:         0       0       0       0       0
  8806 ;;Total ram usage:        0 bytes
  8807 ;; Hardware stack levels used: 1
  8808 ;; Hardware stack levels required when called: 3
  8809 ;; This function calls:
  8810 ;;		_i2c_start
  8811 ;;		_i2c_stop
  8812 ;; This function is called by:
  8813 ;;		_read_ds1307
  8814 ;;		_eeprom_at24c04_random_read
  8815 ;; This function uses a non-reentrant model
  8816 ;;
  8817                           
  8818     1152                     _i2c_rep_start:	
  8819                           ;psect for function _i2c_rep_start
  8820                           
  8821     1152                     l3824:	
  8822                           ;incstack = 0
  8823                           ; Regs used in _i2c_rep_start: [wreg+status,2+status,0+pclath+cstack]
  8824                           
  8825                           
  8826                           ;i2c.c: 30:     i2c_stop();
  8827     1152  160A  118A  213E  160A  118A  	fcall	_i2c_stop
  8828                           
  8829                           ;i2c.c: 31:     i2c_start();
  8830     1157  160A  118A  2135  160A  118A  	fcall	_i2c_start
  8831     115C                     l264:
  8832     115C  0008               	return
  8833     115D                     __end_of_i2c_rep_start:
  8834                           
  8835                           	psect	text35
  8836     123E                     __ptext35:	
  8837 ;; *************** function _i2c_read *****************
  8838 ;; Defined at:
  8839 ;;		line 41 in file "i2c.c"
  8840 ;; Parameters:    Size  Location     Type
  8841 ;;  ack             1    wreg     unsigned char 
  8842 ;; Auto vars:     Size  Location     Type
  8843 ;;  ack             1    2[COMMON] unsigned char 
  8844 ;;  data            1    3[COMMON] unsigned char 
  8845 ;; Return value:  Size  Location     Type
  8846 ;;                  1    wreg      unsigned char 
  8847 ;; Registers used:
  8848 ;;		wreg, status,2, status,0, pclath, cstack
  8849 ;; Tracked objects:
  8850 ;;		On entry : 0/0
  8851 ;;		On exit  : 0/0
  8852 ;;		Unchanged: 0/0
  8853 ;; Data sizes:     COMMON   BANK0   BANK1   BANK3   BANK2
  8854 ;;      Params:         0       0       0       0       0
  8855 ;;      Locals:         2       0       0       0       0
  8856 ;;      Temps:          0       0       0       0       0
  8857 ;;      Totals:         2       0       0       0       0
  8858 ;;Total ram usage:        2 bytes
  8859 ;; Hardware stack levels used: 1
  8860 ;; Hardware stack levels required when called: 2
  8861 ;; This function calls:
  8862 ;;		_i2c_wait_for_idle
  8863 ;; This function is called by:
  8864 ;;		_read_ds1307
  8865 ;;		_eeprom_at24c04_random_read
  8866 ;; This function uses a non-reentrant model
  8867 ;;
  8868                           
  8869     123E                     _i2c_read:	
  8870                           ;psect for function _i2c_read
  8871                           
  8872                           
  8873                           ;incstack = 0
  8874                           ; Regs used in _i2c_read: [wreg+status,2+status,0+pclath+cstack]
  8875                           ;i2c_read@ack stored from wreg
  8876     123E  00F2               	movwf	i2c_read@ack
  8877     123F                     l3826:
  8878                           
  8879                           ;i2c.c: 41: unsigned char i2c_read(unsigned char ack);i2c.c: 42: {;i2c.c: 43:     unsign
      +                          ed char data;;i2c.c: 45:     i2c_wait_for_idle();
  8880     123F  160A  118A  2173  160A  118A  	fcall	_i2c_wait_for_idle
  8881     1244                     l3828:
  8882                           
  8883                           ;i2c.c: 46:     RCEN = 1;
  8884     1244  1683               	bsf	3,5	;RP0=1, select bank1
  8885     1245  1303               	bcf	3,6	;RP1=0, select bank1
  8886     1246  1591               	bsf	17,3	;volatile
  8887                           
  8888                           ;i2c.c: 48:     i2c_wait_for_idle();
  8889     1247  160A  118A  2173  160A  118A  	fcall	_i2c_wait_for_idle
  8890     124C                     l3830:
  8891                           
  8892                           ;i2c.c: 49:     data = SSPBUF;
  8893     124C  1283               	bcf	3,5	;RP0=0, select bank0
  8894     124D  1303               	bcf	3,6	;RP1=0, select bank0
  8895     124E  0813               	movf	19,w	;volatile
  8896     124F  00F3               	movwf	i2c_read@data
  8897     1250                     l3832:
  8898                           
  8899                           ;i2c.c: 51:     if (ack == 1)
  8900     1250  0372               	decf	i2c_read@ack,w
  8901     1251  1D03               	btfss	3,2
  8902     1252  2A54               	goto	u3331
  8903     1253  2A55               	goto	u3330
  8904     1254                     u3331:
  8905     1254  2A59               	goto	l270
  8906     1255                     u3330:
  8907     1255                     l3834:
  8908                           
  8909                           ;i2c.c: 52:     {;i2c.c: 53:         ACKDT = 1;
  8910     1255  1683               	bsf	3,5	;RP0=1, select bank1
  8911     1256  1303               	bcf	3,6	;RP1=0, select bank1
  8912     1257  1691               	bsf	17,5	;volatile
  8913                           
  8914                           ;i2c.c: 54:     }
  8915     1258  2A5C               	goto	l271
  8916     1259                     l270:	
  8917                           ;i2c.c: 55:     else
  8918                           
  8919                           
  8920                           ;i2c.c: 56:     {;i2c.c: 57:         ACKDT = 0;
  8921     1259  1683               	bsf	3,5	;RP0=1, select bank1
  8922     125A  1303               	bcf	3,6	;RP1=0, select bank1
  8923     125B  1291               	bcf	17,5	;volatile
  8924     125C                     l271:	
  8925                           ;i2c.c: 58:     }
  8926                           
  8927                           
  8928                           ;i2c.c: 60:     ACKEN = 1;
  8929     125C  1611               	bsf	17,4	;volatile
  8930     125D                     l3836:
  8931                           
  8932                           ;i2c.c: 62:     return data;
  8933     125D  0873               	movf	i2c_read@data,w
  8934     125E                     l272:
  8935     125E  0008               	return
  8936     125F                     __end_of_i2c_read:
  8937                           
  8938                           	psect	text36
  8939     1282                     __ptext36:	
  8940 ;; *************** function ___wmul *****************
  8941 ;; Defined at:
  8942 ;;		line 15 in file "C:\Program Files\Microchip\xc8\v2.46\pic\sources\c99\common\Umul16.c"
  8943 ;; Parameters:    Size  Location     Type
  8944 ;;  multiplier      2    2[COMMON] unsigned int 
  8945 ;;  multiplicand    2    4[COMMON] unsigned int 
  8946 ;; Auto vars:     Size  Location     Type
  8947 ;;  product         2    6[COMMON] unsigned int 
  8948 ;; Return value:  Size  Location     Type
  8949 ;;                  2    2[COMMON] unsigned int 
  8950 ;; Registers used:
  8951 ;;		wreg, status,2, status,0
  8952 ;; Tracked objects:
  8953 ;;		On entry : 0/0
  8954 ;;		On exit  : 0/0
  8955 ;;		Unchanged: 0/0
  8956 ;; Data sizes:     COMMON   BANK0   BANK1   BANK3   BANK2
  8957 ;;      Params:         4       0       0       0       0
  8958 ;;      Locals:         2       0       0       0       0
  8959 ;;      Temps:          0       0       0       0       0
  8960 ;;      Totals:         6       0       0       0       0
  8961 ;;Total ram usage:        6 bytes
  8962 ;; Hardware stack levels used: 1
  8963 ;; Hardware stack levels required when called: 1
  8964 ;; This function calls:
  8965 ;;		Nothing
  8966 ;; This function is called by:
  8967 ;;		_change_time
  8968 ;; This function uses a non-reentrant model
  8969 ;;
  8970                           
  8971     1282                     ___wmul:	
  8972                           ;psect for function ___wmul
  8973                           
  8974     1282                     l4082:	
  8975                           ;incstack = 0
  8976                           ; Regs used in ___wmul: [wreg+status,2+status,0]
  8977                           
  8978     1282  01F6               	clrf	___wmul@product
  8979     1283  01F7               	clrf	___wmul@product+1
  8980     1284                     l4084:
  8981     1284  1C72               	btfss	___wmul@multiplier,0
  8982     1285  2A87               	goto	u3641
  8983     1286  2A88               	goto	u3640
  8984     1287                     u3641:
  8985     1287  2A8E               	goto	l637
  8986     1288                     u3640:
  8987     1288                     l4086:
  8988     1288  0874               	movf	___wmul@multiplicand,w
  8989     1289  07F6               	addwf	___wmul@product,f
  8990     128A  1803               	skipnc
  8991     128B  0AF7               	incf	___wmul@product+1,f
  8992     128C  0875               	movf	___wmul@multiplicand+1,w
  8993     128D  07F7               	addwf	___wmul@product+1,f
  8994     128E                     l637:
  8995     128E  3001               	movlw	1
  8996     128F                     u3655:
  8997     128F  1003               	clrc
  8998     1290  0DF4               	rlf	___wmul@multiplicand,f
  8999     1291  0DF5               	rlf	___wmul@multiplicand+1,f
  9000     1292  3EFF               	addlw	-1
  9001     1293  1D03               	skipz
  9002     1294  2A8F               	goto	u3655
  9003     1295                     l4088:
  9004     1295  3001               	movlw	1
  9005     1296                     u3665:
  9006     1296  1003               	clrc
  9007     1297  0CF3               	rrf	___wmul@multiplier+1,f
  9008     1298  0CF2               	rrf	___wmul@multiplier,f
  9009     1299  3EFF               	addlw	-1
  9010     129A  1D03               	skipz
  9011     129B  2A96               	goto	u3665
  9012     129C                     l4090:
  9013     129C  0872               	movf	___wmul@multiplier,w
  9014     129D  0473               	iorwf	___wmul@multiplier+1,w
  9015     129E  1D03               	btfss	3,2
  9016     129F  2AA1               	goto	u3671
  9017     12A0  2AA2               	goto	u3670
  9018     12A1                     u3671:
  9019     12A1  2A84               	goto	l4084
  9020     12A2                     u3670:
  9021     12A2                     l4092:
  9022     12A2  0877               	movf	___wmul@product+1,w
  9023     12A3  00F3               	movwf	?___wmul+1
  9024     12A4  0876               	movf	___wmul@product,w
  9025     12A5  00F2               	movwf	?___wmul
  9026     12A6                     l639:
  9027     12A6  0008               	return
  9028     12A7                     __end_of___wmul:
  9029                           
  9030                           	psect	text37
  9031     14A5                     __ptext37:	
  9032 ;; *************** function ___lwmod *****************
  9033 ;; Defined at:
  9034 ;;		line 5 in file "C:\Program Files\Microchip\xc8\v2.46\pic\sources\c99\common\lwmod.c"
  9035 ;; Parameters:    Size  Location     Type
  9036 ;;  divisor         2    3[BANK0 ] unsigned int 
  9037 ;;  dividend        2    5[BANK0 ] unsigned int 
  9038 ;; Auto vars:     Size  Location     Type
  9039 ;;  counter         1    7[BANK0 ] unsigned char 
  9040 ;; Return value:  Size  Location     Type
  9041 ;;                  2    3[BANK0 ] unsigned int 
  9042 ;; Registers used:
  9043 ;;		wreg, status,2, status,0, btemp+1
  9044 ;; Tracked objects:
  9045 ;;		On entry : 0/0
  9046 ;;		On exit  : 0/0
  9047 ;;		Unchanged: 0/0
  9048 ;; Data sizes:     COMMON   BANK0   BANK1   BANK3   BANK2
  9049 ;;      Params:         0       4       0       0       0
  9050 ;;      Locals:         0       1       0       0       0
  9051 ;;      Temps:          0       0       0       0       0
  9052 ;;      Totals:         0       5       0       0       0
  9053 ;;Total ram usage:        5 bytes
  9054 ;; Hardware stack levels used: 1
  9055 ;; Hardware stack levels required when called: 1
  9056 ;; This function calls:
  9057 ;;		Nothing
  9058 ;; This function is called by:
  9059 ;;		_login
  9060 ;;		_change_time
  9061 ;; This function uses a non-reentrant model
  9062 ;;
  9063                           
  9064     14A5                     ___lwmod:	
  9065                           ;psect for function ___lwmod
  9066                           
  9067     14A5                     l4204:	
  9068                           ;incstack = 0
  9069                           ; Regs used in ___lwmod: [wreg+status,2+status,0+btemp+1]
  9070                           
  9071     14A5  1283               	bcf	3,5	;RP0=0, select bank0
  9072     14A6  1303               	bcf	3,6	;RP1=0, select bank0
  9073     14A7  0848               	movf	___lwmod@divisor,w
  9074     14A8  0449               	iorwf	___lwmod@divisor+1,w
  9075     14A9  1903               	btfsc	3,2
  9076     14AA  2CAC               	goto	u3941
  9077     14AB  2CAD               	goto	u3940
  9078     14AC                     u3941:
  9079     14AC  2CDC               	goto	l4222
  9080     14AD                     u3940:
  9081     14AD                     l4206:
  9082     14AD  01CC               	clrf	___lwmod@counter
  9083     14AE  0ACC               	incf	___lwmod@counter,f
  9084     14AF  2CBB               	goto	l4212
  9085     14B0                     l4208:
  9086     14B0  3001               	movlw	1
  9087     14B1                     u3955:
  9088     14B1  1003               	clrc
  9089     14B2  0DC8               	rlf	___lwmod@divisor,f
  9090     14B3  0DC9               	rlf	___lwmod@divisor+1,f
  9091     14B4  3EFF               	addlw	-1
  9092     14B5  1D03               	skipz
  9093     14B6  2CB1               	goto	u3955
  9094     14B7                     l4210:
  9095     14B7  3001               	movlw	1
  9096     14B8  00FF               	movwf	btemp+1
  9097     14B9  087F               	movf	btemp+1,w
  9098     14BA  07CC               	addwf	___lwmod@counter,f
  9099     14BB                     l4212:
  9100     14BB  1FC9               	btfss	___lwmod@divisor+1,7
  9101     14BC  2CBE               	goto	u3961
  9102     14BD  2CBF               	goto	u3960
  9103     14BE                     u3961:
  9104     14BE  2CB0               	goto	l4208
  9105     14BF                     u3960:
  9106     14BF                     l4214:
  9107     14BF  0849               	movf	___lwmod@divisor+1,w
  9108     14C0  024B               	subwf	___lwmod@dividend+1,w
  9109     14C1  1D03               	skipz
  9110     14C2  2CC5               	goto	u3975
  9111     14C3  0848               	movf	___lwmod@divisor,w
  9112     14C4  024A               	subwf	___lwmod@dividend,w
  9113     14C5                     u3975:
  9114     14C5  1C03               	skipc
  9115     14C6  2CC8               	goto	u3971
  9116     14C7  2CC9               	goto	u3970
  9117     14C8                     u3971:
  9118     14C8  2CCF               	goto	l4218
  9119     14C9                     u3970:
  9120     14C9                     l4216:
  9121     14C9  0848               	movf	___lwmod@divisor,w
  9122     14CA  02CA               	subwf	___lwmod@dividend,f
  9123     14CB  0849               	movf	___lwmod@divisor+1,w
  9124     14CC  1C03               	skipc
  9125     14CD  03CB               	decf	___lwmod@dividend+1,f
  9126     14CE  02CB               	subwf	___lwmod@dividend+1,f
  9127     14CF                     l4218:
  9128     14CF  3001               	movlw	1
  9129     14D0                     u3985:
  9130     14D0  1003               	clrc
  9131     14D1  0CC9               	rrf	___lwmod@divisor+1,f
  9132     14D2  0CC8               	rrf	___lwmod@divisor,f
  9133     14D3  3EFF               	addlw	-1
  9134     14D4  1D03               	skipz
  9135     14D5  2CD0               	goto	u3985
  9136     14D6                     l4220:
  9137     14D6  3001               	movlw	1
  9138     14D7  02CC               	subwf	___lwmod@counter,f
  9139     14D8  1D03               	btfss	3,2
  9140     14D9  2CDB               	goto	u3991
  9141     14DA  2CDC               	goto	u3990
  9142     14DB                     u3991:
  9143     14DB  2CBF               	goto	l4214
  9144     14DC                     u3990:
  9145     14DC                     l4222:
  9146     14DC  084B               	movf	___lwmod@dividend+1,w
  9147     14DD  00C9               	movwf	?___lwmod+1
  9148     14DE  084A               	movf	___lwmod@dividend,w
  9149     14DF  00C8               	movwf	?___lwmod
  9150     14E0                     l927:
  9151     14E0  0008               	return
  9152     14E1                     __end_of___lwmod:
  9153                           
  9154                           	psect	text38
  9155     1520                     __ptext38:	
  9156 ;; *************** function ___lwdiv *****************
  9157 ;; Defined at:
  9158 ;;		line 5 in file "C:\Program Files\Microchip\xc8\v2.46\pic\sources\c99\common\lwdiv.c"
  9159 ;; Parameters:    Size  Location     Type
  9160 ;;  divisor         2    6[COMMON] unsigned int 
  9161 ;;  dividend        2    8[COMMON] unsigned int 
  9162 ;; Auto vars:     Size  Location     Type
  9163 ;;  quotient        2    1[BANK0 ] unsigned int 
  9164 ;;  counter         1    0[BANK0 ] unsigned char 
  9165 ;; Return value:  Size  Location     Type
  9166 ;;                  2    6[COMMON] unsigned int 
  9167 ;; Registers used:
  9168 ;;		wreg, status,2, status,0, btemp+1
  9169 ;; Tracked objects:
  9170 ;;		On entry : 0/0
  9171 ;;		On exit  : 0/0
  9172 ;;		Unchanged: 0/0
  9173 ;; Data sizes:     COMMON   BANK0   BANK1   BANK3   BANK2
  9174 ;;      Params:         4       0       0       0       0
  9175 ;;      Locals:         0       3       0       0       0
  9176 ;;      Temps:          0       0       0       0       0
  9177 ;;      Totals:         4       3       0       0       0
  9178 ;;Total ram usage:        7 bytes
  9179 ;; Hardware stack levels used: 1
  9180 ;; Hardware stack levels required when called: 1
  9181 ;; This function calls:
  9182 ;;		Nothing
  9183 ;; This function is called by:
  9184 ;;		_main
  9185 ;;		_login
  9186 ;;		_change_time
  9187 ;; This function uses a non-reentrant model
  9188 ;;
  9189                           
  9190     1520                     ___lwdiv:	
  9191                           ;psect for function ___lwdiv
  9192                           
  9193     1520                     l4178:	
  9194                           ;incstack = 0
  9195                           ; Regs used in ___lwdiv: [wreg+status,2+status,0+btemp+1]
  9196                           
  9197     1520  1283               	bcf	3,5	;RP0=0, select bank0
  9198     1521  1303               	bcf	3,6	;RP1=0, select bank0
  9199     1522  01C6               	clrf	___lwdiv@quotient
  9200     1523  01C7               	clrf	___lwdiv@quotient+1
  9201     1524                     l4180:
  9202     1524  0876               	movf	___lwdiv@divisor,w
  9203     1525  0477               	iorwf	___lwdiv@divisor+1,w
  9204     1526  1903               	btfsc	3,2
  9205     1527  2D29               	goto	u3871
  9206     1528  2D2A               	goto	u3870
  9207     1529                     u3871:
  9208     1529  2D61               	goto	l4200
  9209     152A                     u3870:
  9210     152A                     l4182:
  9211     152A  01C5               	clrf	___lwdiv@counter
  9212     152B  0AC5               	incf	___lwdiv@counter,f
  9213     152C  2D38               	goto	l4188
  9214     152D                     l4184:
  9215     152D  3001               	movlw	1
  9216     152E                     u3885:
  9217     152E  1003               	clrc
  9218     152F  0DF6               	rlf	___lwdiv@divisor,f
  9219     1530  0DF7               	rlf	___lwdiv@divisor+1,f
  9220     1531  3EFF               	addlw	-1
  9221     1532  1D03               	skipz
  9222     1533  2D2E               	goto	u3885
  9223     1534                     l4186:
  9224     1534  3001               	movlw	1
  9225     1535  00FF               	movwf	btemp+1
  9226     1536  087F               	movf	btemp+1,w
  9227     1537  07C5               	addwf	___lwdiv@counter,f
  9228     1538                     l4188:
  9229     1538  1FF7               	btfss	___lwdiv@divisor+1,7
  9230     1539  2D3B               	goto	u3891
  9231     153A  2D3C               	goto	u3890
  9232     153B                     u3891:
  9233     153B  2D2D               	goto	l4184
  9234     153C                     u3890:
  9235     153C                     l4190:
  9236     153C  3001               	movlw	1
  9237     153D                     u3905:
  9238     153D  1003               	clrc
  9239     153E  0DC6               	rlf	___lwdiv@quotient,f
  9240     153F  0DC7               	rlf	___lwdiv@quotient+1,f
  9241     1540  3EFF               	addlw	-1
  9242     1541  1D03               	skipz
  9243     1542  2D3D               	goto	u3905
  9244     1543  0877               	movf	___lwdiv@divisor+1,w
  9245     1544  0279               	subwf	___lwdiv@dividend+1,w
  9246     1545  1D03               	skipz
  9247     1546  2D49               	goto	u3915
  9248     1547  0876               	movf	___lwdiv@divisor,w
  9249     1548  0278               	subwf	___lwdiv@dividend,w
  9250     1549                     u3915:
  9251     1549  1C03               	skipc
  9252     154A  2D4C               	goto	u3911
  9253     154B  2D4D               	goto	u3910
  9254     154C                     u3911:
  9255     154C  2D54               	goto	l4196
  9256     154D                     u3910:
  9257     154D                     l4192:
  9258     154D  0876               	movf	___lwdiv@divisor,w
  9259     154E  02F8               	subwf	___lwdiv@dividend,f
  9260     154F  0877               	movf	___lwdiv@divisor+1,w
  9261     1550  1C03               	skipc
  9262     1551  03F9               	decf	___lwdiv@dividend+1,f
  9263     1552  02F9               	subwf	___lwdiv@dividend+1,f
  9264     1553                     l4194:
  9265     1553  1446               	bsf	___lwdiv@quotient,0
  9266     1554                     l4196:
  9267     1554  3001               	movlw	1
  9268     1555                     u3925:
  9269     1555  1003               	clrc
  9270     1556  0CF7               	rrf	___lwdiv@divisor+1,f
  9271     1557  0CF6               	rrf	___lwdiv@divisor,f
  9272     1558  3EFF               	addlw	-1
  9273     1559  1D03               	skipz
  9274     155A  2D55               	goto	u3925
  9275     155B                     l4198:
  9276     155B  3001               	movlw	1
  9277     155C  02C5               	subwf	___lwdiv@counter,f
  9278     155D  1D03               	btfss	3,2
  9279     155E  2D60               	goto	u3931
  9280     155F  2D61               	goto	u3930
  9281     1560                     u3931:
  9282     1560  2D3C               	goto	l4190
  9283     1561                     u3930:
  9284     1561                     l4200:
  9285     1561  0847               	movf	___lwdiv@quotient+1,w
  9286     1562  00F7               	movwf	?___lwdiv+1
  9287     1563  0846               	movf	___lwdiv@quotient,w
  9288     1564  00F6               	movwf	?___lwdiv
  9289     1565                     l917:
  9290     1565  0008               	return
  9291     1566                     __end_of___lwdiv:
  9292                           
  9293                           	psect	text39
  9294     0CC1                     __ptext39:	
  9295 ;; *************** function _change_password *****************
  9296 ;; Defined at:
  9297 ;;		line 504 in file "car_black_box.c"
  9298 ;; Parameters:    Size  Location     Type
  9299 ;;  key             1    wreg     unsigned char 
  9300 ;;  reset_pwd       1   10[BANK0 ] unsigned char 
  9301 ;; Auto vars:     Size  Location     Type
  9302 ;;  key             1   14[BANK0 ] unsigned char 
  9303 ;; Return value:  Size  Location     Type
  9304 ;;                  1    wreg      unsigned char 
  9305 ;; Registers used:
  9306 ;;		wreg, fsr0l, fsr0h, status,2, status,0, btemp+1, pclath, cstack
  9307 ;; Tracked objects:
  9308 ;;		On entry : 0/0
  9309 ;;		On exit  : 0/0
  9310 ;;		Unchanged: 0/0
  9311 ;; Data sizes:     COMMON   BANK0   BANK1   BANK3   BANK2
  9312 ;;      Params:         0       1       0       0       0
  9313 ;;      Locals:         0       1       0       0       0
  9314 ;;      Temps:          0       3       0       0       0
  9315 ;;      Totals:         0       5       0       0       0
  9316 ;;Total ram usage:        5 bytes
  9317 ;; Hardware stack levels used: 1
  9318 ;; Hardware stack levels required when called: 5
  9319 ;; This function calls:
  9320 ;;		_clcd_print
  9321 ;;		_clcd_putch
  9322 ;;		_clcd_write
  9323 ;;		_eeprom_at24c04_str_write
  9324 ;;		_strncmp
  9325 ;;		_strncpy
  9326 ;; This function is called by:
  9327 ;;		_main
  9328 ;; This function uses a non-reentrant model
  9329 ;;
  9330                           
  9331     0CC1                     _change_password:	
  9332                           ;psect for function _change_password
  9333                           
  9334                           
  9335                           ;incstack = 0
  9336                           ; Regs used in _change_password: [wreg-fsr0h+status,2+status,0+btemp+1+pclath+cstack]
  9337                           ;change_password@key stored from wreg
  9338     0CC1  1283               	bcf	3,5	;RP0=0, select bank0
  9339     0CC2  1303               	bcf	3,6	;RP1=0, select bank0
  9340     0CC3  00D3               	movwf	change_password@key
  9341     0CC4                     l4628:
  9342                           
  9343                           ;car_black_box.c: 504: char change_password(unsigned char key, char reset_pwd);car_black
      +                          _box.c: 505: {;car_black_box.c: 506:     static char new_pwd[9];;car_black_box.c: 507:  
      +                             static int pwd_pos = 0;;car_black_box.c: 508:     static char pwd_changed = 0;;car_bl
      +                          ack_box.c: 509:     static unsigned char toggle_cursor = 0;;car_black_box.c: 510:     st
      +                          atic unsigned int blink_delay = 0;;car_black_box.c: 514:     if (blink_delay++ == 5)
  9344     0CC4  3001               	movlw	1
  9345     0CC5  07AD               	addwf	change_password@blink_delay,f
  9346     0CC6  1803               	skipnc
  9347     0CC7  0AAE               	incf	change_password@blink_delay+1,f
  9348     0CC8  3000               	movlw	0
  9349     0CC9  07AE               	addwf	change_password@blink_delay+1,f
  9350     0CCA  3006               	movlw	6
  9351     0CCB  062D               	xorwf	change_password@blink_delay,w
  9352     0CCC  042E               	iorwf	change_password@blink_delay+1,w
  9353     0CCD  1D03               	btfss	3,2
  9354     0CCE  2CD0               	goto	u4451
  9355     0CCF  2CD1               	goto	u4450
  9356     0CD0                     u4451:
  9357     0CD0  2CDB               	goto	l4634
  9358     0CD1                     u4450:
  9359     0CD1                     l4630:
  9360                           
  9361                           ;car_black_box.c: 515:     {;car_black_box.c: 516:         blink_delay = 0;
  9362     0CD1  01AD               	clrf	change_password@blink_delay
  9363     0CD2  01AE               	clrf	change_password@blink_delay+1
  9364     0CD3                     l4632:
  9365                           
  9366                           ;car_black_box.c: 517:         toggle_cursor = !toggle_cursor;
  9367     0CD3  083A               	movf	change_password@toggle_cursor,w
  9368     0CD4  1903               	btfsc	3,2
  9369     0CD5  2CD7               	goto	u4461
  9370     0CD6  2CD9               	goto	u4460
  9371     0CD7                     u4461:
  9372     0CD7  3001               	movlw	1
  9373     0CD8  2CDA               	goto	u4470
  9374     0CD9                     u4460:
  9375     0CD9  3000               	movlw	0
  9376     0CDA                     u4470:
  9377     0CDA  00BA               	movwf	change_password@toggle_cursor
  9378     0CDB                     l4634:
  9379                           
  9380                           ;car_black_box.c: 523:     if (reset_pwd == 0x60)
  9381     0CDB  3060               	movlw	96
  9382     0CDC  064F               	xorwf	change_password@reset_pwd,w
  9383     0CDD  1D03               	btfss	3,2
  9384     0CDE  2CE0               	goto	u4481
  9385     0CDF  2CE1               	goto	u4480
  9386     0CE0                     u4481:
  9387     0CE0  2CF6               	goto	l4644
  9388     0CE1                     u4480:
  9389     0CE1                     l4636:
  9390                           
  9391                           ;car_black_box.c: 524:     {;car_black_box.c: 525:         strncpy(new_pwd, "    ", 4);
  9392     0CE1  3031               	movlw	low ((STR_43+13)| (0+32768))
  9393     0CE2  00F2               	movwf	strncpy@s
  9394     0CE3  3087               	movlw	high ((STR_43+13)| (0+32768))
  9395     0CE4  00F3               	movwf	strncpy@s+1
  9396     0CE5  3004               	movlw	4
  9397     0CE6  00F4               	movwf	strncpy@n
  9398     0CE7  3000               	movlw	0
  9399     0CE8  00F5               	movwf	strncpy@n+1
  9400     0CE9  30C4               	movlw	(low (change_password@new_pwd| 0))& (0+255)
  9401     0CEA  160A  118A  2566  120A  158A  	fcall	_strncpy
  9402     0CEF                     l4638:
  9403                           
  9404                           ;car_black_box.c: 526:         pwd_pos = 0;
  9405     0CEF  1283               	bcf	3,5	;RP0=0, select bank0
  9406     0CF0  1303               	bcf	3,6	;RP1=0, select bank0
  9407     0CF1  01AF               	clrf	change_password@pwd_pos
  9408     0CF2  01B0               	clrf	change_password@pwd_pos+1
  9409     0CF3                     l4640:
  9410                           
  9411                           ;car_black_box.c: 527:         pwd_changed = 0;
  9412     0CF3  01BB               	clrf	change_password@pwd_changed
  9413     0CF4                     l4642:
  9414                           
  9415                           ;car_black_box.c: 528:         return_time = 5;
  9416     0CF4  3005               	movlw	5
  9417     0CF5  00EB               	movwf	_return_time
  9418     0CF6                     l4644:
  9419                           
  9420                           ;car_black_box.c: 533:     if (!return_time)
  9421     0CF6  086B               	movf	_return_time,w
  9422     0CF7  1D03               	btfss	3,2
  9423     0CF8  2CFA               	goto	u4491
  9424     0CF9  2CFB               	goto	u4490
  9425     0CFA                     u4491:
  9426     0CFA  2CFD               	goto	l4650
  9427     0CFB                     u4490:
  9428     0CFB                     l4646:
  9429                           
  9430                           ;car_black_box.c: 534:         return 0x0A;
  9431     0CFB  300A               	movlw	10
  9432     0CFC  2E5D               	goto	l439
  9433     0CFD                     l4650:
  9434                           
  9435                           ;car_black_box.c: 538:     if (pwd_changed)
  9436     0CFD  083B               	movf	change_password@pwd_changed,w
  9437     0CFE  1903               	btfsc	3,2
  9438     0CFF  2D01               	goto	u4501
  9439     0D00  2D02               	goto	u4500
  9440     0D01                     u4501:
  9441     0D01  2D04               	goto	l4656
  9442     0D02                     u4500:
  9443     0D02                     l4652:
  9444                           
  9445                           ;car_black_box.c: 539:         return 0x0D;
  9446     0D02  300D               	movlw	13
  9447     0D03  2E5D               	goto	l439
  9448     0D04                     l4656:
  9449                           
  9450                           ;car_black_box.c: 543:     if (pwd_pos < 4)
  9451     0D04  0830               	movf	change_password@pwd_pos+1,w
  9452     0D05  3A80               	xorlw	128
  9453     0D06  00FF               	movwf	btemp+1
  9454     0D07  3080               	movlw	128
  9455     0D08  027F               	subwf	btemp+1,w
  9456     0D09  1D03               	skipz
  9457     0D0A  2D0D               	goto	u4515
  9458     0D0B  3004               	movlw	4
  9459     0D0C  022F               	subwf	change_password@pwd_pos,w
  9460     0D0D                     u4515:
  9461     0D0D  1803               	skipnc
  9462     0D0E  2D10               	goto	u4511
  9463     0D0F  2D11               	goto	u4510
  9464     0D10                     u4511:
  9465     0D10  2D37               	goto	l4666
  9466     0D11                     u4510:
  9467     0D11                     l4658:
  9468                           
  9469                           ;car_black_box.c: 544:     {;car_black_box.c: 545:         clcd_print("Enter new pwd:  "
      +                          , (0x80 + 0));
  9470     0D11  3059               	movlw	low (STR_41| (0+32768))
  9471     0D12  00F6               	movwf	clcd_print@str
  9472     0D13  3087               	movlw	high (STR_41| (0+32768))
  9473     0D14  00F7               	movwf	clcd_print@str+1
  9474     0D15  3080               	movlw	128
  9475     0D16  00F8               	movwf	clcd_print@addr
  9476     0D17  160A  118A  23A2  120A  158A  	fcall	_clcd_print
  9477     0D1C                     l4660:
  9478                           
  9479                           ;car_black_box.c: 548:         if (toggle_cursor == 0)
  9480     0D1C  1283               	bcf	3,5	;RP0=0, select bank0
  9481     0D1D  1303               	bcf	3,6	;RP1=0, select bank0
  9482     0D1E  083A               	movf	change_password@toggle_cursor,w
  9483     0D1F  1D03               	btfss	3,2
  9484     0D20  2D22               	goto	u4521
  9485     0D21  2D23               	goto	u4520
  9486     0D22                     u4521:
  9487     0D22  2D2D               	goto	l4664
  9488     0D23                     u4520:
  9489     0D23                     l4662:
  9490                           
  9491                           ;car_black_box.c: 549:         {;car_black_box.c: 550:             clcd_putch((unsigned 
      +                          char) 0xFF, (0xC0 + pwd_pos));
  9492     0D23  082F               	movf	change_password@pwd_pos,w
  9493     0D24  3EC0               	addlw	192
  9494     0D25  00CD               	movwf	clcd_putch@addr
  9495     0D26  30FF               	movlw	255
  9496     0D27  160A  118A  21D6  120A  158A  	fcall	_clcd_putch
  9497                           
  9498                           ;car_black_box.c: 551:         }
  9499     0D2C  2DD3               	goto	l4704
  9500     0D2D                     l4664:
  9501                           
  9502                           ;car_black_box.c: 553:         {;car_black_box.c: 554:             clcd_putch(' ', (0xC0
      +                           + pwd_pos));
  9503     0D2D  082F               	movf	change_password@pwd_pos,w
  9504     0D2E  3EC0               	addlw	192
  9505     0D2F  00CD               	movwf	clcd_putch@addr
  9506     0D30  3020               	movlw	32
  9507     0D31  160A  118A  21D6  120A  158A  	fcall	_clcd_putch
  9508     0D36  2DD3               	goto	l4704
  9509     0D37                     l4666:
  9510     0D37  1283               	bcf	3,5	;RP0=0, select bank0
  9511     0D38  1303               	bcf	3,6	;RP1=0, select bank0
  9512     0D39  0830               	movf	change_password@pwd_pos+1,w
  9513     0D3A  3A80               	xorlw	128
  9514     0D3B  00FF               	movwf	btemp+1
  9515     0D3C  3080               	movlw	128
  9516     0D3D  027F               	subwf	btemp+1,w
  9517     0D3E  1D03               	skipz
  9518     0D3F  2D42               	goto	u4535
  9519     0D40  3004               	movlw	4
  9520     0D41  022F               	subwf	change_password@pwd_pos,w
  9521     0D42                     u4535:
  9522     0D42  1C03               	skipc
  9523     0D43  2D45               	goto	u4531
  9524     0D44  2D46               	goto	u4530
  9525     0D45                     u4531:
  9526     0D45  2DD3               	goto	l4704
  9527     0D46                     u4530:
  9528     0D46                     l4668:
  9529     0D46  1283               	bcf	3,5	;RP0=0, select bank0
  9530     0D47  1303               	bcf	3,6	;RP1=0, select bank0
  9531     0D48  0830               	movf	change_password@pwd_pos+1,w
  9532     0D49  3A80               	xorlw	128
  9533     0D4A  00FF               	movwf	btemp+1
  9534     0D4B  3080               	movlw	128
  9535     0D4C  027F               	subwf	btemp+1,w
  9536     0D4D  1D03               	skipz
  9537     0D4E  2D51               	goto	u4545
  9538     0D4F  3008               	movlw	8
  9539     0D50  022F               	subwf	change_password@pwd_pos,w
  9540     0D51                     u4545:
  9541     0D51  1803               	skipnc
  9542     0D52  2D54               	goto	u4541
  9543     0D53  2D55               	goto	u4540
  9544     0D54                     u4541:
  9545     0D54  2DD3               	goto	l4704
  9546     0D55                     u4540:
  9547     0D55                     l4670:
  9548                           
  9549                           ;car_black_box.c: 558:     {;car_black_box.c: 559:         clcd_print("Re-enter new pwd"
      +                          , (0x80 + 0));
  9550     0D55  30AE               	movlw	low (STR_42| (0+32768))
  9551     0D56  00F6               	movwf	clcd_print@str
  9552     0D57  3087               	movlw	high (STR_42| (0+32768))
  9553     0D58  00F7               	movwf	clcd_print@str+1
  9554     0D59  3080               	movlw	128
  9555     0D5A  00F8               	movwf	clcd_print@addr
  9556     0D5B  160A  118A  23A2  120A  158A  	fcall	_clcd_print
  9557     0D60                     l4672:
  9558                           
  9559                           ;car_black_box.c: 562:         if (toggle_cursor == 0)
  9560     0D60  1283               	bcf	3,5	;RP0=0, select bank0
  9561     0D61  1303               	bcf	3,6	;RP1=0, select bank0
  9562     0D62  083A               	movf	change_password@toggle_cursor,w
  9563     0D63  1D03               	btfss	3,2
  9564     0D64  2D66               	goto	u4551
  9565     0D65  2D67               	goto	u4550
  9566     0D66                     u4551:
  9567     0D66  2D71               	goto	l4676
  9568     0D67                     u4550:
  9569     0D67                     l4674:
  9570                           
  9571                           ;car_black_box.c: 563:         {;car_black_box.c: 564:             clcd_putch((unsigned 
      +                          char) 0xFF, (0xC0 + pwd_pos));
  9572     0D67  082F               	movf	change_password@pwd_pos,w
  9573     0D68  3EC0               	addlw	192
  9574     0D69  00CD               	movwf	clcd_putch@addr
  9575     0D6A  30FF               	movlw	255
  9576     0D6B  160A  118A  21D6  120A  158A  	fcall	_clcd_putch
  9577                           
  9578                           ;car_black_box.c: 565:         }
  9579     0D70  2DD3               	goto	l4704
  9580     0D71                     l4676:
  9581                           
  9582                           ;car_black_box.c: 567:         {;car_black_box.c: 568:             clcd_putch(' ', (0xC0
      +                           + pwd_pos));
  9583     0D71  082F               	movf	change_password@pwd_pos,w
  9584     0D72  3EC0               	addlw	192
  9585     0D73  00CD               	movwf	clcd_putch@addr
  9586     0D74  3020               	movlw	32
  9587     0D75  160A  118A  21D6  120A  158A  	fcall	_clcd_putch
  9588     0D7A  2DD3               	goto	l4704
  9589     0D7B                     l4678:
  9590                           
  9591                           ;car_black_box.c: 576:             new_pwd[pwd_pos] = '0';
  9592     0D7B  082F               	movf	change_password@pwd_pos,w
  9593     0D7C  3EC4               	addlw	(low (change_password@new_pwd| 0))& (0+255)
  9594     0D7D  0084               	movwf	4
  9595     0D7E  3030               	movlw	48
  9596     0D7F  1383               	bcf	3,7	;select IRP bank1
  9597     0D80  0080               	movwf	0
  9598     0D81                     l4680:
  9599                           
  9600                           ;car_black_box.c: 577:             clcd_putch('*', (0xC0 + pwd_pos));
  9601     0D81  082F               	movf	change_password@pwd_pos,w
  9602     0D82  3EC0               	addlw	192
  9603     0D83  00CD               	movwf	clcd_putch@addr
  9604     0D84  302A               	movlw	42
  9605     0D85  160A  118A  21D6  120A  158A  	fcall	_clcd_putch
  9606     0D8A                     l4682:
  9607                           
  9608                           ;car_black_box.c: 578:             pwd_pos++;
  9609     0D8A  3001               	movlw	1
  9610     0D8B  1283               	bcf	3,5	;RP0=0, select bank0
  9611     0D8C  1303               	bcf	3,6	;RP1=0, select bank0
  9612     0D8D  07AF               	addwf	change_password@pwd_pos,f
  9613     0D8E  1803               	skipnc
  9614     0D8F  0AB0               	incf	change_password@pwd_pos+1,f
  9615     0D90  3000               	movlw	0
  9616     0D91  07B0               	addwf	change_password@pwd_pos+1,f
  9617     0D92                     l4684:
  9618                           
  9619                           ;car_black_box.c: 579:             return_time = 5;
  9620     0D92  3005               	movlw	5
  9621     0D93  00EB               	movwf	_return_time
  9622     0D94                     l4686:
  9623                           
  9624                           ;car_black_box.c: 580:             if (pwd_pos == 4)
  9625     0D94  3004               	movlw	4
  9626     0D95  062F               	xorwf	change_password@pwd_pos,w
  9627     0D96  0430               	iorwf	change_password@pwd_pos+1,w
  9628     0D97  1D03               	btfss	3,2
  9629     0D98  2D9A               	goto	u4561
  9630     0D99  2D9B               	goto	u4560
  9631     0D9A                     u4561:
  9632     0D9A  2DDD               	goto	l4706
  9633     0D9B                     u4560:
  9634     0D9B                     l4688:
  9635                           
  9636                           ;car_black_box.c: 581:                 clcd_print("                 ", (0xC0 + 0));
  9637     0D9B  3024               	movlw	low (STR_43| (0+32768))
  9638     0D9C  00F6               	movwf	clcd_print@str
  9639     0D9D  3087               	movlw	high (STR_43| (0+32768))
  9640     0D9E  00F7               	movwf	clcd_print@str+1
  9641     0D9F  30C0               	movlw	192
  9642     0DA0  00F8               	movwf	clcd_print@addr
  9643     0DA1  160A  118A  23A2  120A  158A  	fcall	_clcd_print
  9644     0DA6  2DDD               	goto	l4706
  9645     0DA7                     l4690:
  9646                           
  9647                           ;car_black_box.c: 585:             new_pwd[pwd_pos] = '1';
  9648     0DA7  082F               	movf	change_password@pwd_pos,w
  9649     0DA8  3EC4               	addlw	(low (change_password@new_pwd| 0))& (0+255)
  9650     0DA9  0084               	movwf	4
  9651     0DAA  3031               	movlw	49
  9652     0DAB  1383               	bcf	3,7	;select IRP bank1
  9653     0DAC  0080               	movwf	0
  9654     0DAD                     l4692:
  9655                           
  9656                           ;car_black_box.c: 586:             clcd_putch('*', (0xC0 + pwd_pos));
  9657     0DAD  082F               	movf	change_password@pwd_pos,w
  9658     0DAE  3EC0               	addlw	192
  9659     0DAF  00CD               	movwf	clcd_putch@addr
  9660     0DB0  302A               	movlw	42
  9661     0DB1  160A  118A  21D6  120A  158A  	fcall	_clcd_putch
  9662     0DB6                     l4694:
  9663                           
  9664                           ;car_black_box.c: 587:             pwd_pos++;
  9665     0DB6  3001               	movlw	1
  9666     0DB7  1283               	bcf	3,5	;RP0=0, select bank0
  9667     0DB8  1303               	bcf	3,6	;RP1=0, select bank0
  9668     0DB9  07AF               	addwf	change_password@pwd_pos,f
  9669     0DBA  1803               	skipnc
  9670     0DBB  0AB0               	incf	change_password@pwd_pos+1,f
  9671     0DBC  3000               	movlw	0
  9672     0DBD  07B0               	addwf	change_password@pwd_pos+1,f
  9673     0DBE                     l4696:
  9674                           
  9675                           ;car_black_box.c: 588:             return_time = 5;
  9676     0DBE  3005               	movlw	5
  9677     0DBF  00EB               	movwf	_return_time
  9678     0DC0                     l4698:
  9679                           
  9680                           ;car_black_box.c: 589:             if (pwd_pos == 4)
  9681     0DC0  3004               	movlw	4
  9682     0DC1  062F               	xorwf	change_password@pwd_pos,w
  9683     0DC2  0430               	iorwf	change_password@pwd_pos+1,w
  9684     0DC3  1D03               	btfss	3,2
  9685     0DC4  2DC6               	goto	u4571
  9686     0DC5  2DC7               	goto	u4570
  9687     0DC6                     u4571:
  9688     0DC6  2DDD               	goto	l4706
  9689     0DC7                     u4570:
  9690     0DC7                     l4700:
  9691                           
  9692                           ;car_black_box.c: 590:                 clcd_print("                 ", (0xC0 + 0));
  9693     0DC7  3024               	movlw	low (STR_43| (0+32768))
  9694     0DC8  00F6               	movwf	clcd_print@str
  9695     0DC9  3087               	movlw	high (STR_43| (0+32768))
  9696     0DCA  00F7               	movwf	clcd_print@str+1
  9697     0DCB  30C0               	movlw	192
  9698     0DCC  00F8               	movwf	clcd_print@addr
  9699     0DCD  160A  118A  23A2  120A  158A  	fcall	_clcd_print
  9700     0DD2  2DDD               	goto	l4706
  9701     0DD3                     l4704:
  9702     0DD3  1283               	bcf	3,5	;RP0=0, select bank0
  9703     0DD4  1303               	bcf	3,6	;RP1=0, select bank0
  9704     0DD5  0853               	movf	change_password@key,w
  9705                           
  9706                           ; Switch size 1, requested type "simple"
  9707                           ; Number of cases is 2, Range of values is 47 to 55
  9708                           ; switch strategies available:
  9709                           ; Name         Instructions Cycles
  9710                           ; simple_byte            7     4 (average)
  9711                           ; direct_byte           38    11 (fixed)
  9712                           ; jumptable            263     9 (fixed)
  9713                           ;	Chosen strategy is simple_byte
  9714     0DD6  3A2F               	xorlw	47	; case 47
  9715     0DD7  1903               	skipnz
  9716     0DD8  2D7B               	goto	l4678
  9717     0DD9  3A18               	xorlw	24	; case 55
  9718     0DDA  1903               	skipnz
  9719     0DDB  2DA7               	goto	l4690
  9720     0DDC  2DDD               	goto	l4706
  9721     0DDD                     l4706:
  9722                           
  9723                           ;car_black_box.c: 596:     if (pwd_pos == 8)
  9724     0DDD  3008               	movlw	8
  9725     0DDE  1283               	bcf	3,5	;RP0=0, select bank0
  9726     0DDF  1303               	bcf	3,6	;RP1=0, select bank0
  9727     0DE0  062F               	xorwf	change_password@pwd_pos,w
  9728     0DE1  0430               	iorwf	change_password@pwd_pos+1,w
  9729     0DE2  1D03               	btfss	3,2
  9730     0DE3  2DE5               	goto	u4581
  9731     0DE4  2DE6               	goto	u4580
  9732     0DE5                     u4581:
  9733     0DE5  2D02               	goto	l4652
  9734     0DE6                     u4580:
  9735     0DE6                     l4708:
  9736                           
  9737                           ;car_black_box.c: 597:     {;car_black_box.c: 598:         if (strncmp(new_pwd, &new_pwd
      +                          [4], 4) == 0)
  9738     0DE6  30C8               	movlw	(low ((change_password@new_pwd| 0+4)))& (0+255)
  9739     0DE7  00F2               	movwf	strncmp@r
  9740     0DE8  3004               	movlw	4
  9741     0DE9  00F3               	movwf	strncmp@n
  9742     0DEA  3000               	movlw	0
  9743     0DEB  00F4               	movwf	strncmp@n+1
  9744     0DEC  30C4               	movlw	(low (change_password@new_pwd| 0))& (0+255)
  9745     0DED  160A  118A  25FB  120A  158A  	fcall	_strncmp
  9746     0DF2  0872               	movf	?_strncmp,w
  9747     0DF3  0473               	iorwf	?_strncmp+1,w
  9748     0DF4  1D03               	btfss	3,2
  9749     0DF5  2DF7               	goto	u4591
  9750     0DF6  2DF8               	goto	u4590
  9751     0DF7                     u4591:
  9752     0DF7  2E3F               	goto	l4732
  9753     0DF8                     u4590:
  9754     0DF8                     l4710:
  9755                           
  9756                           ;car_black_box.c: 599:         {;car_black_box.c: 601:             new_pwd[8] = 0;
  9757     0DF8  1683               	bsf	3,5	;RP0=1, select bank1
  9758     0DF9  1303               	bcf	3,6	;RP1=0, select bank1
  9759     0DFA  01CC               	clrf	(change_password@new_pwd^(0+128)+8)
  9760     0DFB                     l4712:
  9761                           
  9762                           ;car_black_box.c: 602:             eeprom_at24c04_str_write(0x00, &new_pwd[4]);
  9763     0DFB  30C8               	movlw	(low ((change_password@new_pwd| 0+4)))& (0+255)
  9764     0DFC  00F7               	movwf	eeprom_at24c04_str_write@data
  9765     0DFD  3000               	movlw	0
  9766     0DFE  00F8               	movwf	eeprom_at24c04_str_write@data+1
  9767     0DFF  3000               	movlw	0
  9768     0E00  160A  118A  2375  120A  158A  	fcall	_eeprom_at24c04_str_write
  9769     0E05                     l4714:
  9770                           
  9771                           ;car_black_box.c: 603:             pwd_pos++;
  9772     0E05  3001               	movlw	1
  9773     0E06  1283               	bcf	3,5	;RP0=0, select bank0
  9774     0E07  1303               	bcf	3,6	;RP1=0, select bank0
  9775     0E08  07AF               	addwf	change_password@pwd_pos,f
  9776     0E09  1803               	skipnc
  9777     0E0A  0AB0               	incf	change_password@pwd_pos+1,f
  9778     0E0B  3000               	movlw	0
  9779     0E0C  07B0               	addwf	change_password@pwd_pos+1,f
  9780     0E0D                     l4716:
  9781                           
  9782                           ;car_black_box.c: 604:             clcd_write(0x01, 0);
  9783     0E0D  01F2               	clrf	clcd_write@mode
  9784     0E0E  3001               	movlw	1
  9785     0E0F  160A  118A  221E  120A  158A  	fcall	_clcd_write
  9786     0E14                     l4718:
  9787                           
  9788                           ;car_black_box.c: 605:             clcd_print("Password changed", (0x80 + 0));
  9789     0E14  308C               	movlw	low (STR_45| (0+32768))
  9790     0E15  00F6               	movwf	clcd_print@str
  9791     0E16  3087               	movlw	high (STR_45| (0+32768))
  9792     0E17  00F7               	movwf	clcd_print@str+1
  9793     0E18  3080               	movlw	128
  9794     0E19  00F8               	movwf	clcd_print@addr
  9795     0E1A  160A  118A  23A2  120A  158A  	fcall	_clcd_print
  9796     0E1F                     l4720:
  9797                           
  9798                           ;car_black_box.c: 606:             clcd_print("successfully ", (0xC0 + 2));
  9799     0E1F  3055               	movlw	low (STR_46| (0+32768))
  9800     0E20  00F6               	movwf	clcd_print@str
  9801     0E21  3088               	movlw	high (STR_46| (0+32768))
  9802     0E22  00F7               	movwf	clcd_print@str+1
  9803     0E23  30C2               	movlw	194
  9804     0E24  00F8               	movwf	clcd_print@addr
  9805     0E25  160A  118A  23A2  120A  158A  	fcall	_clcd_print
  9806     0E2A                     l4722:
  9807                           
  9808                           ;car_black_box.c: 607:             pwd_changed = 1;
  9809     0E2A  1283               	bcf	3,5	;RP0=0, select bank0
  9810     0E2B  1303               	bcf	3,6	;RP1=0, select bank0
  9811     0E2C  01BB               	clrf	change_password@pwd_changed
  9812     0E2D  0ABB               	incf	change_password@pwd_changed,f
  9813     0E2E                     l4724:
  9814                           
  9815                           ;car_black_box.c: 608:             _delay((unsigned long)((1000)*(20000000/4000.0)));
  9816     0E2E  301A               	movlw	26
  9817     0E2F  1283               	bcf	3,5	;RP0=0, select bank0
  9818     0E30  1303               	bcf	3,6	;RP1=0, select bank0
  9819     0E31  00D2               	movwf	??_change_password+2
  9820     0E32  305E               	movlw	94
  9821     0E33  00D1               	movwf	??_change_password+1
  9822     0E34  306D               	movlw	109
  9823     0E35  00D0               	movwf	??_change_password
  9824     0E36                     u5127:
  9825     0E36  0BD0               	decfsz	??_change_password,f
  9826     0E37  2E36               	goto	u5127
  9827     0E38  0BD1               	decfsz	??_change_password+1,f
  9828     0E39  2E36               	goto	u5127
  9829     0E3A  0BD2               	decfsz	??_change_password+2,f
  9830     0E3B  2E36               	goto	u5127
  9831     0E3C  2E3D               	nop2
  9832     0E3D                     l4726:
  9833                           
  9834                           ;car_black_box.c: 609:             return 0x0C;
  9835     0E3D  300C               	movlw	12
  9836     0E3E  2E5D               	goto	l439
  9837     0E3F                     l4732:
  9838                           
  9839                           ;car_black_box.c: 612:         {;car_black_box.c: 614:             clcd_write(0x01, 0);
  9840     0E3F  01F2               	clrf	clcd_write@mode
  9841     0E40  3001               	movlw	1
  9842     0E41  160A  118A  221E  120A  158A  	fcall	_clcd_write
  9843     0E46                     l4734:
  9844                           
  9845                           ;car_black_box.c: 615:             clcd_print("Password  change", (0x80 + 0));
  9846     0E46  30BF               	movlw	low (STR_47| (0+32768))
  9847     0E47  00F6               	movwf	clcd_print@str
  9848     0E48  3087               	movlw	high (STR_47| (0+32768))
  9849     0E49  00F7               	movwf	clcd_print@str+1
  9850     0E4A  3080               	movlw	128
  9851     0E4B  00F8               	movwf	clcd_print@addr
  9852     0E4C  160A  118A  23A2  120A  158A  	fcall	_clcd_print
  9853     0E51                     l4736:
  9854                           
  9855                           ;car_black_box.c: 616:             clcd_print("failed", (0xC0 + 5));
  9856     0E51  30C7               	movlw	low (STR_48| (0+32768))
  9857     0E52  00F6               	movwf	clcd_print@str
  9858     0E53  3088               	movlw	high (STR_48| (0+32768))
  9859     0E54  00F7               	movwf	clcd_print@str+1
  9860     0E55  30C5               	movlw	197
  9861     0E56  00F8               	movwf	clcd_print@addr
  9862     0E57  160A  118A  23A2  120A  158A  	fcall	_clcd_print
  9863     0E5C  2E2A               	goto	l4722
  9864     0E5D                     l439:
  9865     0E5D  0008               	return
  9866     0E5E                     __end_of_change_password:
  9867                           
  9868                           	psect	text40
  9869     1566                     __ptext40:	
  9870 ;; *************** function _strncpy *****************
  9871 ;; Defined at:
  9872 ;;		line 3 in file "C:\Program Files\Microchip\xc8\v2.46\pic\sources\c99\common\strncpy.c"
  9873 ;; Parameters:    Size  Location     Type
  9874 ;;  d               1    wreg     PTR unsigned char 
  9875 ;;		 -> change_password@new_pwd(9), log(11), 
  9876 ;;  s               2    2[COMMON] PTR const unsigned char 
  9877 ;;		 -> STR_40(5), time(7), STR_16(3), STR_15(3), 
  9878 ;;		 -> STR_14(3), STR_11(3), main@event(3), 
  9879 ;;  n               2    4[COMMON] unsigned int 
  9880 ;; Auto vars:     Size  Location     Type
  9881 ;;  d               1    8[COMMON] PTR unsigned char 
  9882 ;;		 -> change_password@new_pwd(9), log(11), 
  9883 ;;  cp              1    9[COMMON] PTR unsigned char 
  9884 ;;		 -> change_password@new_pwd(9), log(11), 
  9885 ;; Return value:  Size  Location     Type
  9886 ;;                  1    wreg      PTR unsigned char 
  9887 ;; Registers used:
  9888 ;;		wreg, fsr0l, fsr0h, status,2, status,0, btemp+1, pclath
  9889 ;; Tracked objects:
  9890 ;;		On entry : 0/0
  9891 ;;		On exit  : 0/0
  9892 ;;		Unchanged: 0/0
  9893 ;; Data sizes:     COMMON   BANK0   BANK1   BANK3   BANK2
  9894 ;;      Params:         4       0       0       0       0
  9895 ;;      Locals:         2       0       0       0       0
  9896 ;;      Temps:          2       0       0       0       0
  9897 ;;      Totals:         8       0       0       0       0
  9898 ;;Total ram usage:        8 bytes
  9899 ;; Hardware stack levels used: 2
  9900 ;; Hardware stack levels required when called: 1
  9901 ;; This function calls:
  9902 ;;		Nothing
  9903 ;; This function is called by:
  9904 ;;		_log_car_event
  9905 ;;		_change_password
  9906 ;; This function uses a non-reentrant model
  9907 ;;
  9908                           
  9909     1566                     _strncpy:	
  9910                           ;psect for function _strncpy
  9911                           
  9912                           
  9913                           ;incstack = 0
  9914                           ; Regs used in _strncpy: [wreg-fsr0h+status,2+status,0+btemp+1+pclath]
  9915                           ;strncpy@d stored from wreg
  9916     1566  00F8               	movwf	strncpy@d
  9917     1567                     l4036:
  9918     1567  0878               	movf	strncpy@d,w
  9919     1568  00F9               	movwf	strncpy@cp
  9920     1569  2D90               	goto	l4044
  9921     156A                     l4038:
  9922     156A  3001               	movlw	1
  9923     156B  02F4               	subwf	strncpy@n,f
  9924     156C  3000               	movlw	0
  9925     156D  1C03               	skipc
  9926     156E  03F5               	decf	strncpy@n+1,f
  9927     156F  02F5               	subwf	strncpy@n+1,f
  9928     1570                     l4040:
  9929     1570  0873               	movf	strncpy@s+1,w
  9930     1571  00F7               	movwf	??_strncpy+1
  9931     1572  0872               	movf	strncpy@s,w
  9932     1573  00F6               	movwf	??_strncpy
  9933     1574  0AF2               	incf	strncpy@s,f
  9934     1575  1903               	skipnz
  9935     1576  0AF3               	incf	strncpy@s+1,f
  9936     1577  0877               	movf	??_strncpy+1,w
  9937     1578  1283               	bcf	3,5	;RP0=0, select bank0
  9938     1579  1303               	bcf	3,6	;RP1=0, select bank0
  9939     157A  00FF               	movwf	btemp+1
  9940     157B  0876               	movf	??_strncpy,w
  9941     157C  0084               	movwf	4
  9942     157D  160A  118A  2000  160A  118A  	fcall	stringtab
  9943     1582  00FF               	movwf	btemp+1
  9944     1583  0879               	movf	strncpy@cp,w
  9945     1584  0084               	movwf	4
  9946     1585  3001               	movlw	1
  9947     1586  07F9               	addwf	strncpy@cp,f
  9948     1587  087F               	movf	btemp+1,w
  9949     1588  1383               	bcf	3,7	;select IRP bank0
  9950     1589  0080               	movwf	0
  9951     158A  0800               	movf	0,w
  9952     158B  1D03               	btfss	3,2
  9953     158C  2D8E               	goto	u3551
  9954     158D  2D8F               	goto	u3550
  9955     158E                     u3551:
  9956     158E  2D90               	goto	l4044
  9957     158F                     u3550:
  9958     158F  2D9F               	goto	l4050
  9959     1590                     l4044:
  9960     1590  0874               	movf	strncpy@n,w
  9961     1591  0475               	iorwf	strncpy@n+1,w
  9962     1592  1D03               	btfss	3,2
  9963     1593  2D95               	goto	u3561
  9964     1594  2D96               	goto	u3560
  9965     1595                     u3561:
  9966     1595  2D6A               	goto	l4038
  9967     1596                     u3560:
  9968     1596  2D9F               	goto	l4050
  9969     1597                     l4046:
  9970     1597  0879               	movf	strncpy@cp,w
  9971     1598  0084               	movwf	4
  9972     1599  1383               	bcf	3,7	;select IRP bank0
  9973     159A  0180               	clrf	0
  9974     159B                     l4048:
  9975     159B  3001               	movlw	1
  9976     159C  00FF               	movwf	btemp+1
  9977     159D  087F               	movf	btemp+1,w
  9978     159E  07F9               	addwf	strncpy@cp,f
  9979     159F                     l4050:
  9980     159F  3001               	movlw	1
  9981     15A0  02F4               	subwf	strncpy@n,f
  9982     15A1  3000               	movlw	0
  9983     15A2  1C03               	skipc
  9984     15A3  03F5               	decf	strncpy@n+1,f
  9985     15A4  02F5               	subwf	strncpy@n+1,f
  9986     15A5  0A74               	incf	strncpy@n,w
  9987     15A6  1D03               	skipz
  9988     15A7  2DAC               	goto	u3571
  9989     15A8  0A75               	incf	strncpy@n+1,w
  9990     15A9  1D03               	btfss	3,2
  9991     15AA  2DAC               	goto	u3571
  9992     15AB  2DAD               	goto	u3570
  9993     15AC                     u3571:
  9994     15AC  2D97               	goto	l4046
  9995     15AD                     u3570:
  9996     15AD                     l1118:
  9997     15AD  0008               	return
  9998     15AE                     __end_of_strncpy:
  9999                           
 10000                           	psect	text41
 10001     15FB                     __ptext41:	
 10002 ;; *************** function _strncmp *****************
 10003 ;; Defined at:
 10004 ;;		line 3 in file "C:\Program Files\Microchip\xc8\v2.46\pic\sources\c99\common\strncmp.c"
 10005 ;; Parameters:    Size  Location     Type
 10006 ;;  l               1    wreg     PTR const unsigned char 
 10007 ;;		 -> change_password@new_pwd(9), login@spassword(4), 
 10008 ;;  r               1    2[COMMON] PTR const unsigned char 
 10009 ;;		 -> change_password@new_pwd(9), login@npassword(4), 
 10010 ;;  n               2    3[COMMON] unsigned int 
 10011 ;; Auto vars:     Size  Location     Type
 10012 ;;  l               1    7[COMMON] PTR const unsigned char 
 10013 ;;		 -> change_password@new_pwd(9), login@spassword(4), 
 10014 ;; Return value:  Size  Location     Type
 10015 ;;                  2    2[COMMON] int 
 10016 ;; Registers used:
 10017 ;;		wreg, fsr0l, fsr0h, status,2, status,0, btemp+1
 10018 ;; Tracked objects:
 10019 ;;		On entry : 0/0
 10020 ;;		On exit  : 0/0
 10021 ;;		Unchanged: 0/0
 10022 ;; Data sizes:     COMMON   BANK0   BANK1   BANK3   BANK2
 10023 ;;      Params:         3       0       0       0       0
 10024 ;;      Locals:         1       0       0       0       0
 10025 ;;      Temps:          2       0       0       0       0
 10026 ;;      Totals:         6       0       0       0       0
 10027 ;;Total ram usage:        6 bytes
 10028 ;; Hardware stack levels used: 1
 10029 ;; Hardware stack levels required when called: 1
 10030 ;; This function calls:
 10031 ;;		Nothing
 10032 ;; This function is called by:
 10033 ;;		_login
 10034 ;;		_change_password
 10035 ;; This function uses a non-reentrant model
 10036 ;;
 10037                           
 10038     15FB                     _strncmp:	
 10039                           ;psect for function _strncmp
 10040                           
 10041                           
 10042                           ;incstack = 0
 10043                           ; Regs used in _strncmp: [wreg-fsr0h+status,2+status,0+btemp+1]
 10044                           ;strncmp@l stored from wreg
 10045     15FB  00F7               	movwf	strncmp@l
 10046     15FC                     l4052:
 10047     15FC  3001               	movlw	1
 10048     15FD  02F3               	subwf	strncmp@n,f
 10049     15FE  3000               	movlw	0
 10050     15FF  1C03               	skipc
 10051     1600  03F4               	decf	strncmp@n+1,f
 10052     1601  02F4               	subwf	strncmp@n+1,f
 10053     1602  0A73               	incf	strncmp@n,w
 10054     1603  1D03               	skipz
 10055     1604  2E09               	goto	u3581
 10056     1605  0A74               	incf	strncmp@n+1,w
 10057     1606  1D03               	btfss	3,2
 10058     1607  2E09               	goto	u3581
 10059     1608  2E0A               	goto	u3580
 10060     1609                     u3581:
 10061     1609  2E1B               	goto	l4062
 10062     160A                     u3580:
 10063     160A                     l4054:
 10064     160A  01F2               	clrf	?_strncmp
 10065     160B  01F3               	clrf	?_strncmp+1
 10066     160C  2E4A               	goto	l1103
 10067     160D                     l4058:
 10068     160D  3001               	movlw	1
 10069     160E  00FF               	movwf	btemp+1
 10070     160F  087F               	movf	btemp+1,w
 10071     1610  07F7               	addwf	strncmp@l,f
 10072     1611  3001               	movlw	1
 10073     1612  00FF               	movwf	btemp+1
 10074     1613  087F               	movf	btemp+1,w
 10075     1614  07F2               	addwf	strncmp@r,f
 10076     1615                     l4060:
 10077     1615  3001               	movlw	1
 10078     1616  02F3               	subwf	strncmp@n,f
 10079     1617  3000               	movlw	0
 10080     1618  1C03               	skipc
 10081     1619  03F4               	decf	strncmp@n+1,f
 10082     161A  02F4               	subwf	strncmp@n+1,f
 10083     161B                     l4062:
 10084     161B  0877               	movf	strncmp@l,w
 10085     161C  0084               	movwf	4
 10086     161D  1383               	bcf	3,7	;select IRP bank0
 10087     161E  0800               	movf	0,w
 10088     161F  1903               	btfsc	3,2
 10089     1620  2E22               	goto	u3591
 10090     1621  2E23               	goto	u3590
 10091     1622                     u3591:
 10092     1622  2E3C               	goto	l4070
 10093     1623                     u3590:
 10094     1623                     l4064:
 10095     1623  0872               	movf	strncmp@r,w
 10096     1624  0084               	movwf	4
 10097     1625  0800               	movf	0,w
 10098     1626  1903               	btfsc	3,2
 10099     1627  2E29               	goto	u3601
 10100     1628  2E2A               	goto	u3600
 10101     1629                     u3601:
 10102     1629  2E3C               	goto	l4070
 10103     162A                     u3600:
 10104     162A                     l4066:
 10105     162A  0873               	movf	strncmp@n,w
 10106     162B  0474               	iorwf	strncmp@n+1,w
 10107     162C  1903               	btfsc	3,2
 10108     162D  2E2F               	goto	u3611
 10109     162E  2E30               	goto	u3610
 10110     162F                     u3611:
 10111     162F  2E3C               	goto	l4070
 10112     1630                     u3610:
 10113     1630                     l4068:
 10114     1630  0872               	movf	strncmp@r,w
 10115     1631  0084               	movwf	4
 10116     1632  0800               	movf	0,w
 10117     1633  00F5               	movwf	??_strncmp
 10118     1634  0877               	movf	strncmp@l,w
 10119     1635  0084               	movwf	4
 10120     1636  0800               	movf	0,w
 10121     1637  0675               	xorwf	??_strncmp,w
 10122     1638  1903               	skipnz
 10123     1639  2E3B               	goto	u3621
 10124     163A  2E3C               	goto	u3620
 10125     163B                     u3621:
 10126     163B  2E0D               	goto	l4058
 10127     163C                     u3620:
 10128     163C                     l4070:
 10129     163C  0872               	movf	strncmp@r,w
 10130     163D  0084               	movwf	4
 10131     163E  0800               	movf	0,w
 10132     163F  00F5               	movwf	??_strncmp
 10133     1640  0877               	movf	strncmp@l,w
 10134     1641  0084               	movwf	4
 10135     1642  0800               	movf	0,w
 10136     1643  00F6               	movwf	??_strncmp+1
 10137     1644  0875               	movf	??_strncmp,w
 10138     1645  0276               	subwf	??_strncmp+1,w
 10139     1646  00F2               	movwf	?_strncmp
 10140     1647  01F3               	clrf	?_strncmp+1
 10141     1648  1C03               	skipc
 10142     1649  03F3               	decf	?_strncmp+1,f
 10143     164A                     l1103:
 10144     164A  0008               	return
 10145     164B                     __end_of_strncmp:
 10146                           
 10147                           	psect	text42
 10148     1375                     __ptext42:	
 10149 ;; *************** function _eeprom_at24c04_str_write *****************
 10150 ;; Defined at:
 10151 ;;		line 31 in file "at24c04.c"
 10152 ;; Parameters:    Size  Location     Type
 10153 ;;  memory_loc      1    wreg     unsigned char 
 10154 ;;  data            2    7[COMMON] PTR unsigned char 
 10155 ;;		 -> change_password@new_pwd(9), log(11), STR_7(5), 
 10156 ;; Auto vars:     Size  Location     Type
 10157 ;;  memory_loc      1    9[COMMON] unsigned char 
 10158 ;; Return value:  Size  Location     Type
 10159 ;;                  1    wreg      void 
 10160 ;; Registers used:
 10161 ;;		wreg, fsr0l, fsr0h, status,2, status,0, btemp+1, pclath, cstack
 10162 ;; Tracked objects:
 10163 ;;		On entry : 0/0
 10164 ;;		On exit  : 0/0
 10165 ;;		Unchanged: 0/0
 10166 ;; Data sizes:     COMMON   BANK0   BANK1   BANK3   BANK2
 10167 ;;      Params:         2       0       0       0       0
 10168 ;;      Locals:         1       0       0       0       0
 10169 ;;      Temps:          0       0       0       0       0
 10170 ;;      Totals:         3       0       0       0       0
 10171 ;;Total ram usage:        3 bytes
 10172 ;; Hardware stack levels used: 1
 10173 ;; Hardware stack levels required when called: 4
 10174 ;; This function calls:
 10175 ;;		_eeprom_at24c04_byte_write
 10176 ;; This function is called by:
 10177 ;;		_main
 10178 ;;		_log_event
 10179 ;;		_change_password
 10180 ;; This function uses a non-reentrant model
 10181 ;;
 10182                           
 10183     1375                     _eeprom_at24c04_str_write:	
 10184                           ;psect for function _eeprom_at24c04_str_write
 10185                           
 10186                           
 10187                           ;incstack = 0
 10188                           ; Regs used in _eeprom_at24c04_str_write: [wreg-fsr0h+status,2+status,0+btemp+1+pclath+c
      +                          stack]
 10189                           ;eeprom_at24c04_str_write@memory_loc stored from wreg
 10190     1375  00F9               	movwf	eeprom_at24c04_str_write@memory_loc
 10191     1376                     l3858:
 10192                           
 10193                           ;at24c04.c: 31: void eeprom_at24c04_str_write(unsigned char memory_loc, char *data);at24
      +                          c04.c: 32: {;at24c04.c: 33:     while (*data != 0)
 10194     1376  2B91               	goto	l3866
 10195     1377                     l3860:
 10196                           
 10197                           ;at24c04.c: 34:     {;at24c04.c: 35:         eeprom_at24c04_byte_write(memory_loc, *data
      +                          );
 10198     1377  0878               	movf	eeprom_at24c04_str_write@data+1,w
 10199     1378  00FF               	movwf	btemp+1
 10200     1379  0877               	movf	eeprom_at24c04_str_write@data,w
 10201     137A  0084               	movwf	4
 10202     137B  160A  118A  2000  160A  118A  	fcall	stringtab
 10203     1380  00F3               	movwf	eeprom_at24c04_byte_write@data
 10204     1381  0879               	movf	eeprom_at24c04_str_write@memory_loc,w
 10205     1382  160A  118A  22CD  160A  118A  	fcall	_eeprom_at24c04_byte_write
 10206     1387                     l3862:
 10207                           
 10208                           ;at24c04.c: 36:         data++;
 10209     1387  3001               	movlw	1
 10210     1388  07F7               	addwf	eeprom_at24c04_str_write@data,f
 10211     1389  1803               	skipnc
 10212     138A  0AF8               	incf	eeprom_at24c04_str_write@data+1,f
 10213     138B  3000               	movlw	0
 10214     138C  07F8               	addwf	eeprom_at24c04_str_write@data+1,f
 10215     138D                     l3864:
 10216                           
 10217                           ;at24c04.c: 37:         memory_loc++;
 10218     138D  3001               	movlw	1
 10219     138E  00FF               	movwf	btemp+1
 10220     138F  087F               	movf	btemp+1,w
 10221     1390  07F9               	addwf	eeprom_at24c04_str_write@memory_loc,f
 10222     1391                     l3866:
 10223                           
 10224                           ;at24c04.c: 33:     while (*data != 0)
 10225     1391  0878               	movf	eeprom_at24c04_str_write@data+1,w
 10226     1392  1283               	bcf	3,5	;RP0=0, select bank0
 10227     1393  1303               	bcf	3,6	;RP1=0, select bank0
 10228     1394  00FF               	movwf	btemp+1
 10229     1395  0877               	movf	eeprom_at24c04_str_write@data,w
 10230     1396  0084               	movwf	4
 10231     1397  160A  118A  2000  160A  118A  	fcall	stringtab
 10232     139C  3A00               	xorlw	0
 10233     139D  1D03               	skipz
 10234     139E  2BA0               	goto	u3361
 10235     139F  2BA1               	goto	u3360
 10236     13A0                     u3361:
 10237     13A0  2B77               	goto	l3860
 10238     13A1                     u3360:
 10239     13A1                     l299:
 10240     13A1  0008               	return
 10241     13A2                     __end_of_eeprom_at24c04_str_write:
 10242                           
 10243                           	psect	text43
 10244     12CD                     __ptext43:	
 10245 ;; *************** function _eeprom_at24c04_byte_write *****************
 10246 ;; Defined at:
 10247 ;;		line 20 in file "at24c04.c"
 10248 ;; Parameters:    Size  Location     Type
 10249 ;;  memory_loc      1    wreg     unsigned char 
 10250 ;;  data            1    3[COMMON] unsigned char 
 10251 ;; Auto vars:     Size  Location     Type
 10252 ;;  memory_loc      1    6[COMMON] unsigned char 
 10253 ;; Return value:  Size  Location     Type
 10254 ;;                  1    wreg      void 
 10255 ;; Registers used:
 10256 ;;		wreg, status,2, status,0, pclath, cstack
 10257 ;; Tracked objects:
 10258 ;;		On entry : 0/0
 10259 ;;		On exit  : 0/0
 10260 ;;		Unchanged: 0/0
 10261 ;; Data sizes:     COMMON   BANK0   BANK1   BANK3   BANK2
 10262 ;;      Params:         1       0       0       0       0
 10263 ;;      Locals:         1       0       0       0       0
 10264 ;;      Temps:          2       0       0       0       0
 10265 ;;      Totals:         4       0       0       0       0
 10266 ;;Total ram usage:        4 bytes
 10267 ;; Hardware stack levels used: 1
 10268 ;; Hardware stack levels required when called: 3
 10269 ;; This function calls:
 10270 ;;		_i2c_start
 10271 ;;		_i2c_stop
 10272 ;;		_i2c_write
 10273 ;; This function is called by:
 10274 ;;		_eeprom_at24c04_str_write
 10275 ;; This function uses a non-reentrant model
 10276 ;;
 10277                           
 10278     12CD                     _eeprom_at24c04_byte_write:	
 10279                           ;psect for function _eeprom_at24c04_byte_write
 10280                           
 10281                           
 10282                           ;incstack = 0
 10283                           ; Regs used in _eeprom_at24c04_byte_write: [wreg+status,2+status,0+pclath+cstack]
 10284                           ;eeprom_at24c04_byte_write@memory_loc stored from wreg
 10285     12CD  00F6               	movwf	eeprom_at24c04_byte_write@memory_loc
 10286     12CE                     l3854:
 10287                           
 10288                           ;at24c04.c: 20: void eeprom_at24c04_byte_write(unsigned char memory_loc, unsigned char d
      +                          ata);at24c04.c: 21: {;at24c04.c: 22:     i2c_start();
 10289     12CE  160A  118A  2135  160A  118A  	fcall	_i2c_start
 10290                           
 10291                           ;at24c04.c: 23:     i2c_write(0xA0);
 10292     12D3  30A0               	movlw	160
 10293     12D4  160A  118A  2147  160A  118A  	fcall	_i2c_write
 10294                           
 10295                           ;at24c04.c: 24:     i2c_write(memory_loc);
 10296     12D9  0876               	movf	eeprom_at24c04_byte_write@memory_loc,w
 10297     12DA  160A  118A  2147  160A  118A  	fcall	_i2c_write
 10298                           
 10299                           ;at24c04.c: 25:     i2c_write(data);
 10300     12DF  0873               	movf	eeprom_at24c04_byte_write@data,w
 10301     12E0  160A  118A  2147  160A  118A  	fcall	_i2c_write
 10302                           
 10303                           ;at24c04.c: 26:     i2c_stop();
 10304     12E5  160A  118A  213E  160A  118A  	fcall	_i2c_stop
 10305     12EA                     l3856:
 10306                           
 10307                           ;at24c04.c: 28:     _delay((unsigned long)((3)*(20000000/4000.0)));
 10308     12EA  3014               	movlw	20
 10309     12EB  00F5               	movwf	??_eeprom_at24c04_byte_write+1
 10310     12EC  3079               	movlw	121
 10311     12ED  00F4               	movwf	??_eeprom_at24c04_byte_write
 10312     12EE                     u5137:
 10313     12EE  0BF4               	decfsz	??_eeprom_at24c04_byte_write,f
 10314     12EF  2AEE               	goto	u5137
 10315     12F0  0BF5               	decfsz	??_eeprom_at24c04_byte_write+1,f
 10316     12F1  2AEE               	goto	u5137
 10317     12F2  2AF3               	nop2
 10318     12F3                     l293:
 10319     12F3  0008               	return
 10320     12F4                     __end_of_eeprom_at24c04_byte_write:
 10321                           
 10322                           	psect	text44
 10323     1147                     __ptext44:	
 10324 ;; *************** function _i2c_write *****************
 10325 ;; Defined at:
 10326 ;;		line 65 in file "i2c.c"
 10327 ;; Parameters:    Size  Location     Type
 10328 ;;  data            1    wreg     unsigned char 
 10329 ;; Auto vars:     Size  Location     Type
 10330 ;;  data            1    2[COMMON] unsigned char 
 10331 ;; Return value:  Size  Location     Type
 10332 ;;                  2  208[None  ] int 
 10333 ;; Registers used:
 10334 ;;		wreg, status,2, status,0, pclath, cstack
 10335 ;; Tracked objects:
 10336 ;;		On entry : 0/0
 10337 ;;		On exit  : 0/0
 10338 ;;		Unchanged: 0/0
 10339 ;; Data sizes:     COMMON   BANK0   BANK1   BANK3   BANK2
 10340 ;;      Params:         0       0       0       0       0
 10341 ;;      Locals:         1       0       0       0       0
 10342 ;;      Temps:          0       0       0       0       0
 10343 ;;      Totals:         1       0       0       0       0
 10344 ;;Total ram usage:        1 bytes
 10345 ;; Hardware stack levels used: 1
 10346 ;; Hardware stack levels required when called: 2
 10347 ;; This function calls:
 10348 ;;		_i2c_wait_for_idle
 10349 ;; This function is called by:
 10350 ;;		_read_ds1307
 10351 ;;		_write_ds1307
 10352 ;;		_eeprom_at24c04_random_read
 10353 ;;		_eeprom_at24c04_byte_write
 10354 ;; This function uses a non-reentrant model
 10355 ;;
 10356                           
 10357     1147                     _i2c_write:	
 10358                           ;psect for function _i2c_write
 10359                           
 10360                           
 10361                           ;incstack = 0
 10362                           ; Regs used in _i2c_write: [wreg+status,2+status,0+pclath+cstack]
 10363                           ;i2c_write@data stored from wreg
 10364     1147  00F2               	movwf	i2c_write@data
 10365     1148                     l3816:
 10366                           
 10367                           ;i2c.c: 65: int i2c_write(unsigned char data);i2c.c: 66: {;i2c.c: 67:     i2c_wait_for_i
      +                          dle();
 10368     1148  160A  118A  2173  160A  118A  	fcall	_i2c_wait_for_idle
 10369     114D                     l3818:
 10370                           
 10371                           ;i2c.c: 68:     SSPBUF = data;
 10372     114D  0872               	movf	i2c_write@data,w
 10373     114E  1283               	bcf	3,5	;RP0=0, select bank0
 10374     114F  1303               	bcf	3,6	;RP1=0, select bank0
 10375     1150  0093               	movwf	19	;volatile
 10376     1151                     l3820:
 10377     1151                     l275:	
 10378                           ;i2c.c: 70:     return !ACKSTAT;;	Return value of _i2c_write is never used
 10379                           
 10380     1151  0008               	return
 10381     1152                     __end_of_i2c_write:
 10382                           
 10383                           	psect	text45
 10384     113E                     __ptext45:	
 10385 ;; *************** function _i2c_stop *****************
 10386 ;; Defined at:
 10387 ;;		line 35 in file "i2c.c"
 10388 ;; Parameters:    Size  Location     Type
 10389 ;;		None
 10390 ;; Auto vars:     Size  Location     Type
 10391 ;;		None
 10392 ;; Return value:  Size  Location     Type
 10393 ;;                  1    wreg      void 
 10394 ;; Registers used:
 10395 ;;		wreg, status,2, status,0, pclath, cstack
 10396 ;; Tracked objects:
 10397 ;;		On entry : 0/0
 10398 ;;		On exit  : 0/0
 10399 ;;		Unchanged: 0/0
 10400 ;; Data sizes:     COMMON   BANK0   BANK1   BANK3   BANK2
 10401 ;;      Params:         0       0       0       0       0
 10402 ;;      Locals:         0       0       0       0       0
 10403 ;;      Temps:          0       0       0       0       0
 10404 ;;      Totals:         0       0       0       0       0
 10405 ;;Total ram usage:        0 bytes
 10406 ;; Hardware stack levels used: 1
 10407 ;; Hardware stack levels required when called: 2
 10408 ;; This function calls:
 10409 ;;		_i2c_wait_for_idle
 10410 ;; This function is called by:
 10411 ;;		_read_ds1307
 10412 ;;		_write_ds1307
 10413 ;;		_i2c_rep_start
 10414 ;;		_eeprom_at24c04_random_read
 10415 ;;		_eeprom_at24c04_byte_write
 10416 ;; This function uses a non-reentrant model
 10417 ;;
 10418                           
 10419     113E                     _i2c_stop:	
 10420                           ;psect for function _i2c_stop
 10421                           
 10422     113E                     l3812:	
 10423                           ;incstack = 0
 10424                           ; Regs used in _i2c_stop: [wreg+status,2+status,0+pclath+cstack]
 10425                           
 10426                           
 10427                           ;i2c.c: 37:     i2c_wait_for_idle();
 10428     113E  160A  118A  2173  160A  118A  	fcall	_i2c_wait_for_idle
 10429     1143                     l3814:
 10430                           
 10431                           ;i2c.c: 38:     PEN = 1;
 10432     1143  1683               	bsf	3,5	;RP0=1, select bank1
 10433     1144  1303               	bcf	3,6	;RP1=0, select bank1
 10434     1145  1511               	bsf	17,2	;volatile
 10435     1146                     l267:
 10436     1146  0008               	return
 10437     1147                     __end_of_i2c_stop:
 10438                           
 10439                           	psect	text46
 10440     1135                     __ptext46:	
 10441 ;; *************** function _i2c_start *****************
 10442 ;; Defined at:
 10443 ;;		line 22 in file "i2c.c"
 10444 ;; Parameters:    Size  Location     Type
 10445 ;;		None
 10446 ;; Auto vars:     Size  Location     Type
 10447 ;;		None
 10448 ;; Return value:  Size  Location     Type
 10449 ;;                  1    wreg      void 
 10450 ;; Registers used:
 10451 ;;		wreg, status,2, status,0, pclath, cstack
 10452 ;; Tracked objects:
 10453 ;;		On entry : 0/0
 10454 ;;		On exit  : 0/0
 10455 ;;		Unchanged: 0/0
 10456 ;; Data sizes:     COMMON   BANK0   BANK1   BANK3   BANK2
 10457 ;;      Params:         0       0       0       0       0
 10458 ;;      Locals:         0       0       0       0       0
 10459 ;;      Temps:          0       0       0       0       0
 10460 ;;      Totals:         0       0       0       0       0
 10461 ;;Total ram usage:        0 bytes
 10462 ;; Hardware stack levels used: 1
 10463 ;; Hardware stack levels required when called: 2
 10464 ;; This function calls:
 10465 ;;		_i2c_wait_for_idle
 10466 ;; This function is called by:
 10467 ;;		_read_ds1307
 10468 ;;		_write_ds1307
 10469 ;;		_i2c_rep_start
 10470 ;;		_eeprom_at24c04_random_read
 10471 ;;		_eeprom_at24c04_byte_write
 10472 ;; This function uses a non-reentrant model
 10473 ;;
 10474                           
 10475     1135                     _i2c_start:	
 10476                           ;psect for function _i2c_start
 10477                           
 10478     1135                     l3808:	
 10479                           ;incstack = 0
 10480                           ; Regs used in _i2c_start: [wreg+status,2+status,0+pclath+cstack]
 10481                           
 10482                           
 10483                           ;i2c.c: 24:     i2c_wait_for_idle();
 10484     1135  160A  118A  2173  160A  118A  	fcall	_i2c_wait_for_idle
 10485     113A                     l3810:
 10486                           
 10487                           ;i2c.c: 25:     SEN = 1;
 10488     113A  1683               	bsf	3,5	;RP0=1, select bank1
 10489     113B  1303               	bcf	3,6	;RP1=0, select bank1
 10490     113C  1411               	bsf	17,0	;volatile
 10491     113D                     l261:
 10492     113D  0008               	return
 10493     113E                     __end_of_i2c_start:
 10494                           
 10495                           	psect	text47
 10496     1173                     __ptext47:	
 10497 ;; *************** function _i2c_wait_for_idle *****************
 10498 ;; Defined at:
 10499 ;;		line 16 in file "i2c.c"
 10500 ;; Parameters:    Size  Location     Type
 10501 ;;		None
 10502 ;; Auto vars:     Size  Location     Type
 10503 ;;		None
 10504 ;; Return value:  Size  Location     Type
 10505 ;;                  1    wreg      void 
 10506 ;; Registers used:
 10507 ;;		wreg, status,2
 10508 ;; Tracked objects:
 10509 ;;		On entry : 0/0
 10510 ;;		On exit  : 0/0
 10511 ;;		Unchanged: 0/0
 10512 ;; Data sizes:     COMMON   BANK0   BANK1   BANK3   BANK2
 10513 ;;      Params:         0       0       0       0       0
 10514 ;;      Locals:         0       0       0       0       0
 10515 ;;      Temps:          0       0       0       0       0
 10516 ;;      Totals:         0       0       0       0       0
 10517 ;;Total ram usage:        0 bytes
 10518 ;; Hardware stack levels used: 1
 10519 ;; Hardware stack levels required when called: 1
 10520 ;; This function calls:
 10521 ;;		Nothing
 10522 ;; This function is called by:
 10523 ;;		_i2c_start
 10524 ;;		_i2c_stop
 10525 ;;		_i2c_read
 10526 ;;		_i2c_write
 10527 ;; This function uses a non-reentrant model
 10528 ;;
 10529                           
 10530     1173                     _i2c_wait_for_idle:	
 10531                           ;psect for function _i2c_wait_for_idle
 10532                           
 10533     1173                     l3804:	
 10534                           ;incstack = 0
 10535                           ; Regs used in _i2c_wait_for_idle: [wreg+status,2]
 10536                           
 10537     1173                     l255:	
 10538                           ;i2c.c: 19:     while (R_nW || (SSPCON2 & 0x1F));
 10539                           
 10540     1173  1683               	bsf	3,5	;RP0=1, select bank1
 10541     1174  1303               	bcf	3,6	;RP1=0, select bank1
 10542     1175  1914               	btfsc	20,2	;volatile
 10543     1176  2978               	goto	u3311
 10544     1177  2979               	goto	u3310
 10545     1178                     u3311:
 10546     1178  2973               	goto	l255
 10547     1179                     u3310:
 10548     1179                     l3806:
 10549     1179  0811               	movf	17,w	;volatile
 10550     117A  391F               	andlw	31
 10551     117B  1D03               	btfss	3,2
 10552     117C  297E               	goto	u3321
 10553     117D  297F               	goto	u3320
 10554     117E                     u3321:
 10555     117E  2973               	goto	l255
 10556     117F                     u3320:
 10557     117F                     l258:
 10558     117F  0008               	return
 10559     1180                     __end_of_i2c_wait_for_idle:
 10560                           
 10561                           	psect	text48
 10562     11D6                     __ptext48:	
 10563 ;; *************** function _clcd_putch *****************
 10564 ;; Defined at:
 10565 ;;		line 49 in file "clcd.c"
 10566 ;; Parameters:    Size  Location     Type
 10567 ;;  data            1    wreg     const unsigned char 
 10568 ;;  addr            1    8[BANK0 ] unsigned char 
 10569 ;; Auto vars:     Size  Location     Type
 10570 ;;  data            1    9[BANK0 ] const unsigned char 
 10571 ;; Return value:  Size  Location     Type
 10572 ;;                  1    wreg      void 
 10573 ;; Registers used:
 10574 ;;		wreg, status,2, status,0, pclath, cstack
 10575 ;; Tracked objects:
 10576 ;;		On entry : 0/0
 10577 ;;		On exit  : 0/0
 10578 ;;		Unchanged: 0/0
 10579 ;; Data sizes:     COMMON   BANK0   BANK1   BANK3   BANK2
 10580 ;;      Params:         0       1       0       0       0
 10581 ;;      Locals:         0       1       0       0       0
 10582 ;;      Temps:          0       0       0       0       0
 10583 ;;      Totals:         0       2       0       0       0
 10584 ;;Total ram usage:        2 bytes
 10585 ;; Hardware stack levels used: 1
 10586 ;; Hardware stack levels required when called: 2
 10587 ;; This function calls:
 10588 ;;		_clcd_write
 10589 ;; This function is called by:
 10590 ;;		_display_time
 10591 ;;		_display_dashboard
 10592 ;;		_login
 10593 ;;		_login_menu
 10594 ;;		_view_log
 10595 ;;		_change_password
 10596 ;;		_change_time
 10597 ;; This function uses a non-reentrant model
 10598 ;;
 10599                           
 10600     11D6                     _clcd_putch:	
 10601                           ;psect for function _clcd_putch
 10602                           
 10603                           
 10604                           ;incstack = 0
 10605                           ; Regs used in _clcd_putch: [wreg+status,2+status,0+pclath+cstack]
 10606                           ;clcd_putch@data stored from wreg
 10607     11D6  1283               	bcf	3,5	;RP0=0, select bank0
 10608     11D7  1303               	bcf	3,6	;RP1=0, select bank0
 10609     11D8  00CE               	movwf	clcd_putch@data
 10610     11D9                     l3888:
 10611                           
 10612                           ;clcd.c: 49: void clcd_putch(const char data, unsigned char addr);clcd.c: 50: {;clcd.c: 
      +                          51:     clcd_write(addr, 0);
 10613     11D9  01F2               	clrf	clcd_write@mode
 10614     11DA  084D               	movf	clcd_putch@addr,w
 10615     11DB  160A  118A  221E  160A  118A  	fcall	_clcd_write
 10616                           
 10617                           ;clcd.c: 52:     clcd_write(data, 1);
 10618     11E0  01F2               	clrf	clcd_write@mode
 10619     11E1  0AF2               	incf	clcd_write@mode,f
 10620     11E2  1283               	bcf	3,5	;RP0=0, select bank0
 10621     11E3  1303               	bcf	3,6	;RP1=0, select bank0
 10622     11E4  084E               	movf	clcd_putch@data,w
 10623     11E5  160A  118A  221E  160A  118A  	fcall	_clcd_write
 10624     11EA                     l169:
 10625     11EA  0008               	return
 10626     11EB                     __end_of_clcd_putch:
 10627                           
 10628                           	psect	text49
 10629     13A2                     __ptext49:	
 10630 ;; *************** function _clcd_print *****************
 10631 ;; Defined at:
 10632 ;;		line 55 in file "clcd.c"
 10633 ;; Parameters:    Size  Location     Type
 10634 ;;  str             2    6[COMMON] PTR const unsigned char 
 10635 ;;		 -> STR_54(3), STR_53(3), STR_52(3), STR_51(13), 
 10636 ;;		 -> STR_50(13), STR_49(16), STR_48(7), STR_47(17), 
 10637 ;;		 -> STR_46(14), STR_45(17), STR_44(18), STR_43(18), 
 10638 ;;		 -> STR_42(17), STR_41(17), STR_33(13), STR_32(13), 
 10639 ;;		 -> STR_31(17), STR_30(17), STR_29(17), STR_28(17), 
 10640 ;;		 -> STR_27(17), STR_26(16), STR_25(17), STR_24(17), 
 10641 ;;		 -> STR_23(17), STR_22(17), STR_21(9), STR_20(16), 
 10642 ;;		 -> STR_19(13), STR_18(10), STR_17(9), STR_13(17), 
 10643 ;;		 -> STR_12(17), STR_10(17), STR_9(17), main@event(3), 
 10644 ;;  addr            1    8[COMMON] unsigned char 
 10645 ;; Auto vars:     Size  Location     Type
 10646 ;;		None
 10647 ;; Return value:  Size  Location     Type
 10648 ;;                  1    wreg      void 
 10649 ;; Registers used:
 10650 ;;		wreg, fsr0l, fsr0h, status,2, status,0, btemp+1, pclath, cstack
 10651 ;; Tracked objects:
 10652 ;;		On entry : 0/0
 10653 ;;		On exit  : 0/0
 10654 ;;		Unchanged: 0/0
 10655 ;; Data sizes:     COMMON   BANK0   BANK1   BANK3   BANK2
 10656 ;;      Params:         3       0       0       0       0
 10657 ;;      Locals:         0       0       0       0       0
 10658 ;;      Temps:          0       0       0       0       0
 10659 ;;      Totals:         3       0       0       0       0
 10660 ;;Total ram usage:        3 bytes
 10661 ;; Hardware stack levels used: 1
 10662 ;; Hardware stack levels required when called: 2
 10663 ;; This function calls:
 10664 ;;		_clcd_write
 10665 ;; This function is called by:
 10666 ;;		_main
 10667 ;;		_display_dashboard
 10668 ;;		_login
 10669 ;;		_login_menu
 10670 ;;		_view_log
 10671 ;;		_clear_log
 10672 ;;		_change_password
 10673 ;;		_change_time
 10674 ;; This function uses a non-reentrant model
 10675 ;;
 10676                           
 10677     13A2                     _clcd_print:	
 10678                           ;psect for function _clcd_print
 10679                           
 10680     13A2                     l3992:	
 10681                           ;incstack = 0
 10682                           ; Regs used in _clcd_print: [wreg-fsr0h+status,2+status,0+btemp+1+pclath+cstack]
 10683                           
 10684                           
 10685                           ;clcd.c: 55: void clcd_print(const char *str, unsigned char addr);clcd.c: 56: {;clcd.c: 
      +                          57:     clcd_write(addr, 0);
 10686     13A2  01F2               	clrf	clcd_write@mode
 10687     13A3  0878               	movf	clcd_print@addr,w
 10688     13A4  160A  118A  221E  160A  118A  	fcall	_clcd_write
 10689                           
 10690                           ;clcd.c: 59:     while (*str != '\0')
 10691     13A9  2BC0               	goto	l3998
 10692     13AA                     l3994:
 10693                           
 10694                           ;clcd.c: 60:     {;clcd.c: 61:         clcd_write(*str, 1);
 10695     13AA  01F2               	clrf	clcd_write@mode
 10696     13AB  0AF2               	incf	clcd_write@mode,f
 10697     13AC  0877               	movf	clcd_print@str+1,w
 10698     13AD  00FF               	movwf	btemp+1
 10699     13AE  0876               	movf	clcd_print@str,w
 10700     13AF  0084               	movwf	4
 10701     13B0  160A  118A  2000  160A  118A  	fcall	stringtab
 10702     13B5  160A  118A  221E  160A  118A  	fcall	_clcd_write
 10703     13BA                     l3996:
 10704                           
 10705                           ;clcd.c: 62:         str++;
 10706     13BA  3001               	movlw	1
 10707     13BB  07F6               	addwf	clcd_print@str,f
 10708     13BC  1803               	skipnc
 10709     13BD  0AF7               	incf	clcd_print@str+1,f
 10710     13BE  3000               	movlw	0
 10711     13BF  07F7               	addwf	clcd_print@str+1,f
 10712     13C0                     l3998:
 10713                           
 10714                           ;clcd.c: 59:     while (*str != '\0')
 10715     13C0  0877               	movf	clcd_print@str+1,w
 10716     13C1  1283               	bcf	3,5	;RP0=0, select bank0
 10717     13C2  1303               	bcf	3,6	;RP1=0, select bank0
 10718     13C3  00FF               	movwf	btemp+1
 10719     13C4  0876               	movf	clcd_print@str,w
 10720     13C5  0084               	movwf	4
 10721     13C6  160A  118A  2000  160A  118A  	fcall	stringtab
 10722     13CB  3A00               	xorlw	0
 10723     13CC  1D03               	skipz
 10724     13CD  2BCF               	goto	u3521
 10725     13CE  2BD0               	goto	u3520
 10726     13CF                     u3521:
 10727     13CF  2BAA               	goto	l3994
 10728     13D0                     u3520:
 10729     13D0                     l175:
 10730     13D0  0008               	return
 10731     13D1                     __end_of_clcd_print:
 10732                           
 10733                           	psect	text50
 10734     121E                     __ptext50:	
 10735 ;; *************** function _clcd_write *****************
 10736 ;; Defined at:
 10737 ;;		line 4 in file "clcd.c"
 10738 ;; Parameters:    Size  Location     Type
 10739 ;;  byte            1    wreg     unsigned char 
 10740 ;;  mode            1    2[COMMON] unsigned char 
 10741 ;; Auto vars:     Size  Location     Type
 10742 ;;  byte            1    5[COMMON] unsigned char 
 10743 ;; Return value:  Size  Location     Type
 10744 ;;                  1    wreg      void 
 10745 ;; Registers used:
 10746 ;;		wreg
 10747 ;; Tracked objects:
 10748 ;;		On entry : 0/0
 10749 ;;		On exit  : 0/0
 10750 ;;		Unchanged: 0/0
 10751 ;; Data sizes:     COMMON   BANK0   BANK1   BANK3   BANK2
 10752 ;;      Params:         1       0       0       0       0
 10753 ;;      Locals:         1       0       0       0       0
 10754 ;;      Temps:          2       0       0       0       0
 10755 ;;      Totals:         4       0       0       0       0
 10756 ;;Total ram usage:        4 bytes
 10757 ;; Hardware stack levels used: 1
 10758 ;; Hardware stack levels required when called: 1
 10759 ;; This function calls:
 10760 ;;		Nothing
 10761 ;; This function is called by:
 10762 ;;		_main
 10763 ;;		_init_display_controller
 10764 ;;		_clcd_putch
 10765 ;;		_clcd_print
 10766 ;;		_clear_screen
 10767 ;;		_login
 10768 ;;		_change_password
 10769 ;;		_change_time
 10770 ;; This function uses a non-reentrant model
 10771 ;;
 10772                           
 10773     121E                     _clcd_write:	
 10774                           ;psect for function _clcd_write
 10775                           
 10776                           
 10777                           ;incstack = 0
 10778                           ; Regs used in _clcd_write: [wreg]
 10779                           ;clcd_write@byte stored from wreg
 10780     121E  00F5               	movwf	clcd_write@byte
 10781     121F                     l3840:
 10782                           
 10783                           ;clcd.c: 4: void clcd_write(unsigned char byte, unsigned char mode);clcd.c: 5: {;clcd.c:
      +                           6:     RE2 = mode;
 10784     121F  1872               	btfsc	clcd_write@mode,0
 10785     1220  2A22               	goto	u3341
 10786     1221  2A26               	goto	u3340
 10787     1222                     u3341:
 10788     1222  1283               	bcf	3,5	;RP0=0, select bank0
 10789     1223  1303               	bcf	3,6	;RP1=0, select bank0
 10790     1224  1509               	bsf	9,2	;volatile
 10791     1225  2A29               	goto	u3354
 10792     1226                     u3340:
 10793     1226  1283               	bcf	3,5	;RP0=0, select bank0
 10794     1227  1303               	bcf	3,6	;RP1=0, select bank0
 10795     1228  1109               	bcf	9,2	;volatile
 10796     1229                     u3354:
 10797     1229                     l3842:
 10798                           
 10799                           ;clcd.c: 7:     PORTD = byte;
 10800     1229  0875               	movf	clcd_write@byte,w
 10801     122A  0088               	movwf	8	;volatile
 10802     122B                     l3844:
 10803                           
 10804                           ;clcd.c: 9:     RE1 = 1;
 10805     122B  1489               	bsf	9,1	;volatile
 10806                           
 10807                           ;clcd.c: 10:     _delay((unsigned long)((100)*(20000000/4000000.0)));
 10808     122C  30A6               	movlw	166
 10809     122D  00F3               	movwf	??_clcd_write
 10810     122E                     u5147:
 10811     122E  0BF3               	decfsz	??_clcd_write,f
 10812     122F  2A2E               	goto	u5147
 10813     1230  0000               	nop
 10814     1231                     l3846:
 10815                           
 10816                           ;clcd.c: 11:     RE1 = 0;
 10817     1231  1283               	bcf	3,5	;RP0=0, select bank0
 10818     1232  1303               	bcf	3,6	;RP1=0, select bank0
 10819     1233  1089               	bcf	9,1	;volatile
 10820                           
 10821                           ;clcd.c: 13:     _delay((unsigned long)((4100)*(20000000/4000000.0)));
 10822     1234  301B               	movlw	27
 10823     1235  00F4               	movwf	??_clcd_write+1
 10824     1236  309E               	movlw	158
 10825     1237  00F3               	movwf	??_clcd_write
 10826     1238                     u5157:
 10827     1238  0BF3               	decfsz	??_clcd_write,f
 10828     1239  2A38               	goto	u5157
 10829     123A  0BF4               	decfsz	??_clcd_write+1,f
 10830     123B  2A38               	goto	u5157
 10831     123C  0000               	nop
 10832     123D                     l160:
 10833     123D  0008               	return
 10834     123E                     __end_of_clcd_write:
 10835                           
 10836                           	psect	text51
 10837     1433                     __ptext51:	
 10838 ;; *************** function _isr *****************
 10839 ;; Defined at:
 10840 ;;		line 7 in file "isr.c"
 10841 ;; Parameters:    Size  Location     Type
 10842 ;;		None
 10843 ;; Auto vars:     Size  Location     Type
 10844 ;;		None
 10845 ;; Return value:  Size  Location     Type
 10846 ;;                  1    wreg      void 
 10847 ;; Registers used:
 10848 ;;		wreg, status,2, status,0
 10849 ;; Tracked objects:
 10850 ;;		On entry : 0/0
 10851 ;;		On exit  : 0/0
 10852 ;;		Unchanged: 0/0
 10853 ;; Data sizes:     COMMON   BANK0   BANK1   BANK3   BANK2
 10854 ;;      Params:         0       0       0       0       0
 10855 ;;      Locals:         0       0       0       0       0
 10856 ;;      Temps:          2       0       0       0       0
 10857 ;;      Totals:         2       0       0       0       0
 10858 ;;Total ram usage:        2 bytes
 10859 ;; Hardware stack levels used: 1
 10860 ;; This function calls:
 10861 ;;		Nothing
 10862 ;; This function is called by:
 10863 ;;		Interrupt level 1
 10864 ;; This function uses a non-reentrant model
 10865 ;;
 10866                           
 10867     1433                     _isr:	
 10868                           ;psect for function _isr
 10869                           
 10870     1433                     i1l3756:
 10871                           
 10872                           ;isr.c: 9:     static unsigned int count = 0;;isr.c: 11:     if (TMR2IF == 1)
 10873     1433  1283               	bcf	3,5	;RP0=0, select bank0
 10874     1434  1303               	bcf	3,6	;RP1=0, select bank0
 10875     1435  1C8C               	btfss	12,1	;volatile
 10876     1436  2C38               	goto	u326_21
 10877     1437  2C39               	goto	u326_20
 10878     1438                     u326_21:
 10879     1438  2C64               	goto	i1l503
 10880     1439                     u326_20:
 10881     1439                     i1l3758:
 10882                           
 10883                           ;isr.c: 12:     {;isr.c: 13:         if (++count == 1250)
 10884     1439  3001               	movlw	1
 10885     143A  07A9               	addwf	isr@count,f
 10886     143B  1803               	skipnc
 10887     143C  0AAA               	incf	isr@count+1,f
 10888     143D  3000               	movlw	0
 10889     143E  07AA               	addwf	isr@count+1,f
 10890     143F  30E2               	movlw	226
 10891     1440  0629               	xorwf	isr@count,w
 10892     1441  3004               	movlw	4
 10893     1442  1903               	skipnz
 10894     1443  062A               	xorwf	isr@count+1,w
 10895     1444  1D03               	btfss	3,2
 10896     1445  2C47               	goto	u327_21
 10897     1446  2C48               	goto	u327_20
 10898     1447                     u327_21:
 10899     1447  2C63               	goto	i1l3772
 10900     1448                     u327_20:
 10901     1448                     i1l3760:
 10902                           
 10903                           ;isr.c: 14:         {;isr.c: 15:             count = 0;
 10904     1448  01A9               	clrf	isr@count
 10905     1449  01AA               	clrf	isr@count+1
 10906     144A                     i1l3762:
 10907                           
 10908                           ;isr.c: 16:             if (sec > 0)
 10909     144A  0833               	movf	_sec,w
 10910     144B  0434               	iorwf	_sec+1,w
 10911     144C  1903               	btfsc	3,2
 10912     144D  2C4F               	goto	u328_21
 10913     144E  2C50               	goto	u328_20
 10914     144F                     u328_21:
 10915     144F  2C56               	goto	i1l3766
 10916     1450                     u328_20:
 10917     1450                     i1l3764:
 10918                           
 10919                           ;isr.c: 17:             {;isr.c: 18:                 sec--;
 10920     1450  3001               	movlw	1
 10921     1451  02B3               	subwf	_sec,f
 10922     1452  3000               	movlw	0
 10923     1453  1C03               	skipc
 10924     1454  03B4               	decf	_sec+1,f
 10925     1455  02B4               	subwf	_sec+1,f
 10926     1456                     i1l3766:
 10927                           
 10928                           ;isr.c: 21:             if(sec == 0 && return_time > 0)
 10929     1456  0833               	movf	_sec,w
 10930     1457  0434               	iorwf	_sec+1,w
 10931     1458  1D03               	btfss	3,2
 10932     1459  2C5B               	goto	u329_21
 10933     145A  2C5C               	goto	u329_20
 10934     145B                     u329_21:
 10935     145B  2C63               	goto	i1l3772
 10936     145C                     u329_20:
 10937     145C                     i1l3768:
 10938     145C  086B               	movf	_return_time,w
 10939     145D  1903               	btfsc	3,2
 10940     145E  2C60               	goto	u330_21
 10941     145F  2C61               	goto	u330_20
 10942     1460                     u330_21:
 10943     1460  2C63               	goto	i1l3772
 10944     1461                     u330_20:
 10945     1461                     i1l3770:
 10946                           
 10947                           ;isr.c: 22:             {;isr.c: 23:                 return_time--;
 10948     1461  3001               	movlw	1
 10949     1462  02EB               	subwf	_return_time,f
 10950     1463                     i1l3772:
 10951                           
 10952                           ;isr.c: 27:         TMR2IF = 0;
 10953     1463  108C               	bcf	12,1	;volatile
 10954     1464                     i1l503:
 10955     1464  0871               	movf	??_isr+1,w
 10956     1465  008A               	movwf	10
 10957     1466  0E70               	swapf	??_isr,w
 10958     1467  0083               	movwf	3
 10959     1468  0EFE               	swapf	btemp,f
 10960     1469  0E7E               	swapf	btemp,w
 10961     146A  0009               	retfie
 10962     146B                     __end_of_isr:
 10963     007E                     btemp	set	126	;btemp
 10964     007E                     wtemp0	set	126
 10965                           
 10966                           	psect	intentry
 10967     0004                     __pintentry:	
 10968                           ;incstack = 0
 10969                           ; Regs used in _isr: [wreg+status,2+status,0]
 10970                           
 10971     0004                     interrupt_function:
 10972     007E                     saved_w	set	btemp
 10973     0004  00FE               	movwf	btemp
 10974     0005  0E03               	swapf	3,w
 10975     0006  00F0               	movwf	??_isr
 10976     0007  080A               	movf	10,w
 10977     0008  00F1               	movwf	??_isr+1
 10978     0009  160A  118A  2C33   	ljmp	_isr
 10979                           
 10980                           	psect	idloc
 10981                           
 10982                           ;Config register IDLOC0 @ 0x2000
 10983                           ;	unspecified, using default values
 10984     2000                     	org	8192
 10985     2000  3FFF               	dw	16383
 10986                           
 10987                           ;Config register IDLOC1 @ 0x2001
 10988                           ;	unspecified, using default values
 10989     2001                     	org	8193
 10990     2001  3FFF               	dw	16383
 10991                           
 10992                           ;Config register IDLOC2 @ 0x2002
 10993                           ;	unspecified, using default values
 10994     2002                     	org	8194
 10995     2002  3FFF               	dw	16383
 10996                           
 10997                           ;Config register IDLOC3 @ 0x2003
 10998                           ;	unspecified, using default values
 10999     2003                     	org	8195
 11000     2003  3FFF               	dw	16383
 11001                           
 11002                           	psect	config
 11003                           
 11004                           ;Config register CONFIG @ 0x2007
 11005                           ;	Oscillator Selection bits
 11006                           ;	FOSC = 0x3, unprogrammed default
 11007                           ;	Watchdog Timer Enable bit
 11008                           ;	WDTE = OFF, WDT disabled
 11009                           ;	Power-up Timer Enable bit
 11010                           ;	PWRTE = 0x1, unprogrammed default
 11011                           ;	Brown-out Reset Enable bit
 11012                           ;	BOREN = 0x1, unprogrammed default
 11013                           ;	Low-Voltage (Single-Supply) In-Circuit Serial Programming Enable bit
 11014                           ;	LVP = 0x1, unprogrammed default
 11015                           ;	Data EEPROM Memory Code Protection bit
 11016                           ;	CPD = 0x1, unprogrammed default
 11017                           ;	Flash Program Memory Write Enable bits
 11018                           ;	WRT = 0x3, unprogrammed default
 11019                           ;	In-Circuit Debugger Mode bit
 11020                           ;	DEBUG = 0x1, unprogrammed default
 11021                           ;	Flash Program Memory Code Protection bit
 11022                           ;	CP = 0x1, unprogrammed default
 11023     2007                     	org	8199
 11024     2007  3FFB               	dw	16379

Data Sizes:
    Strings     500
    Constant    0
    Data        31
    BSS         63
    Persistent  0
    Stack       0

Auto Spaces:
    Space          Size  Autos    Used
    COMMON           14     10      12
    BANK0            80     33      76
    BANK1            80      9      58
    BANK3            96      0       0
    BANK2            96      0       0

Pointer List with Targets:

    clcd_print@str	PTR const unsigned char  size(2) Largest target is 18
		 -> main@event(BANK1[3]), STR_10(CODE[17]), STR_12(CODE[17]), STR_13(CODE[17]), 
		 -> STR_17(CODE[9]), STR_18(CODE[10]), STR_19(CODE[13]), STR_20(CODE[16]), 
		 -> STR_21(CODE[9]), STR_22(CODE[17]), STR_23(CODE[17]), STR_24(CODE[17]), 
		 -> STR_25(CODE[17]), STR_26(CODE[16]), STR_27(CODE[17]), STR_28(CODE[17]), 
		 -> STR_29(CODE[17]), STR_30(CODE[17]), STR_31(CODE[17]), STR_32(CODE[13]), 
		 -> STR_33(CODE[13]), STR_41(CODE[17]), STR_42(CODE[17]), STR_43(CODE[18]), 
		 -> STR_44(CODE[18]), STR_45(CODE[17]), STR_46(CODE[14]), STR_47(CODE[17]), 
		 -> STR_48(CODE[7]), STR_49(CODE[16]), STR_50(CODE[13]), STR_51(CODE[13]), 
		 -> STR_52(CODE[3]), STR_53(CODE[3]), STR_54(CODE[3]), STR_9(CODE[17]), 

    display_dashboard@event	PTR unsigned char  size(1) Largest target is 3
		 -> main@event(BANK1[3]), 

    eeprom_at24c04_str_write@data	PTR unsigned char  size(2) Largest target is 11
		 -> change_password@new_pwd(BANK1[9]), log(BANK1[11]), STR_7(CODE[5]), 

    gear	PTR unsigned char [6] size(2) Largest target is 3
		 -> STR_1(CODE[3]), STR_2(CODE[3]), STR_3(CODE[3]), STR_4(CODE[3]), 
		 -> STR_5(CODE[3]), STR_6(CODE[3]), 

    log_car_event@event	PTR unsigned char  size(2) Largest target is 3
		 -> main@event(BANK1[3]), STR_11(CODE[3]), STR_14(CODE[3]), STR_15(CODE[3]), 
		 -> STR_16(CODE[3]), 

    menu	PTR unsigned char [5] size(2) Largest target is 16
		 -> STR_17(CODE[9]), STR_18(CODE[10]), STR_19(CODE[13]), STR_20(CODE[16]), 
		 -> STR_21(CODE[9]), 

    puts@s	PTR const unsigned char  size(2) Largest target is 36
		 -> STR_34(CODE[18]), STR_35(CODE[7]), STR_36(CODE[36]), STR_37(CODE[4]), 
		 -> STR_38(CODE[7]), STR_39(CODE[13]), 

    sp__strcpy	PTR unsigned char  size(1) Largest target is 3
		 -> main@event(BANK1[3]), 

    sp__strncpy	PTR unsigned char  size(1) Largest target is 11
		 -> change_password@new_pwd(BANK1[9]), log(BANK1[11]), 

    strcpy@d	PTR unsigned char  size(1) Largest target is 3
		 -> main@event(BANK1[3]), 

    strcpy@dest	PTR unsigned char  size(1) Largest target is 3
		 -> main@event(BANK1[3]), 

    strcpy@src	PTR const unsigned char  size(2) Largest target is 3
		 -> STR_1(CODE[3]), STR_2(CODE[3]), STR_3(CODE[3]), STR_4(CODE[3]), 
		 -> STR_5(CODE[3]), STR_6(CODE[3]), STR_8(CODE[3]), 

    strncmp@l	PTR const unsigned char  size(1) Largest target is 9
		 -> change_password@new_pwd(BANK1[9]), login@spassword(BANK0[4]), 

    strncmp@r	PTR const unsigned char  size(1) Largest target is 9
		 -> change_password@new_pwd(BANK1[9]), login@npassword(BANK1[4]), 

    strncpy@cp	PTR unsigned char  size(1) Largest target is 11
		 -> change_password@new_pwd(BANK1[9]), log(BANK1[11]), 

    strncpy@d	PTR unsigned char  size(1) Largest target is 11
		 -> change_password@new_pwd(BANK1[9]), log(BANK1[11]), 

    strncpy@s	PTR const unsigned char  size(2) Largest target is 7
		 -> main@event(BANK1[3]), STR_11(CODE[3]), STR_14(CODE[3]), STR_15(CODE[3]), 
		 -> STR_16(CODE[3]), STR_40(CODE[5]), time(BANK0[7]), 


Critical Paths under _main in COMMON

    _main->___lwdiv
    _main->_clear_log
    _main->_eeprom_at24c04_str_write
    _login->___lwdiv
    _clear_screen->_clcd_write
    _log_car_event->___awdiv
    _log_car_event->_strncpy
    _log_event->_eeprom_at24c04_str_write
    _init_uart->___lldiv
    _init_i2c->___lldiv
    _init_ds1307->_read_ds1307
    _init_clcd->_init_display_controller
    _init_display_controller->_clcd_write
    _download_log->_eeprom_at24c04_random_read
    _puts->_putchar
    _eeprom_at24c04_random_read->_i2c_read
    _display_dashboard->___awdiv
    _clear_log->_clcd_print
    _change_time->___lwdiv
    _write_ds1307->_i2c_write
    _get_time->_read_ds1307
    _read_ds1307->_i2c_read
    ___lwmod->___lwdiv
    ___lwdiv->_read_adc
    _change_password->_eeprom_at24c04_str_write
    _change_password->_strncpy
    _eeprom_at24c04_str_write->_eeprom_at24c04_byte_write
    _eeprom_at24c04_byte_write->_i2c_write
    _clcd_putch->___awdiv
    _clcd_putch->___lwdiv
    _clcd_print->_clcd_write

Critical Paths under _isr in COMMON

    None.

Critical Paths under _main in BANK0

    _main->_view_log
    _view_log->_clcd_putch
    _login_menu->_clcd_putch
    _login->_clcd_putch
    _log_car_event->_log_event
    _init_config->_init_i2c
    _init_config->_init_uart
    _init_uart->___lldiv
    _init_i2c->___lldiv
    _display_dashboard->_clcd_putch
    _display_time->_clcd_putch
    _change_time->_clcd_putch
    ___lwmod->___lwdiv
    _change_password->_clcd_putch
    _clcd_putch->___lwmod

Critical Paths under _isr in BANK0

    None.

Critical Paths under _main in BANK1

    None.

Critical Paths under _isr in BANK1

    None.

Critical Paths under _main in BANK3

    None.

Critical Paths under _isr in BANK3

    None.

Critical Paths under _main in BANK2

    None.

Critical Paths under _isr in BANK2

    None.

Call Graph Tables:

 ---------------------------------------------------------------------------------
 (Depth) Function   	        Calls       Base Space   Used Autos Params    Refs
 ---------------------------------------------------------------------------------
 (0) _main                                                12    12      0  154035
                                             30 BANK0      3     3      0
                                              0 BANK1      9     9      0
                            ___lwdiv
                    _change_password
                        _change_time
                         _clcd_print
                         _clcd_write
                          _clear_log
                       _clear_screen
                  _display_dashboard
                       _download_log
           _eeprom_at24c04_str_write
                        _init_config
                      _log_car_event
                              _login
                         _login_menu
                           _read_adc
                _read_digital_keypad
                             _strcpy
                           _view_log
 ---------------------------------------------------------------------------------
 (1) _view_log                                            20    19      1   15684
                                             10 BANK0     20    19      1
                             ___bmul
                         _clcd_print
                         _clcd_putch
         _eeprom_at24c04_random_read
 ---------------------------------------------------------------------------------
 (2) _strcpy                                               6     4      2     481
                                              2 COMMON     6     4      2
 ---------------------------------------------------------------------------------
 (1) _read_digital_keypad                                  1     1      0     158
                                              2 COMMON     1     1      0
 ---------------------------------------------------------------------------------
 (1) _read_adc                                             4     2      2      34
                                              2 COMMON     4     2      2
 ---------------------------------------------------------------------------------
 (1) _login_menu                                           4     3      1   16457
                                             10 BANK0      4     3      1
                         _clcd_print
                         _clcd_putch
                       _clear_screen
 ---------------------------------------------------------------------------------
 (1) _login                                               13    12      1   22846
                                             10 BANK0     13    12      1
                            ___lwdiv
                            ___lwmod
                         _clcd_print
                         _clcd_putch
                         _clcd_write
                       _clear_screen
         _eeprom_at24c04_random_read
                            _strncmp
 ---------------------------------------------------------------------------------
 (2) _clear_screen                                         2     2      0    1952
                                              6 COMMON     2     2      0
                         _clcd_write
 ---------------------------------------------------------------------------------
 (1) _log_car_event                                        5     2      3    5137
                                              1 BANK0      5     2      3
                            ___awdiv
                            ___awmod
                           _get_time
                          _log_event
                            _strncpy
 ---------------------------------------------------------------------------------
 (2) _log_event                                            1     1      0     995
                                              0 BANK0      1     1      0
                             ___bmul
           _eeprom_at24c04_str_write
 ---------------------------------------------------------------------------------
 (1) _init_config                                          0     0      0    4078
                           _init_adc
                          _init_clcd
                _init_digital_keypad
                        _init_ds1307
                           _init_i2c
                        _init_timer2
                          _init_uart
 ---------------------------------------------------------------------------------
 (2) _init_uart                                            8     4      4     722
                                              6 BANK0      8     4      4
                            ___lldiv
 ---------------------------------------------------------------------------------
 (2) _init_timer2                                          0     0      0       0
 ---------------------------------------------------------------------------------
 (2) _init_i2c                                             8     4      4     722
                                              6 BANK0      8     4      4
                            ___lldiv
 ---------------------------------------------------------------------------------
 (3) ___lldiv                                             14     6      8     601
                                              2 COMMON     8     0      8
                                              0 BANK0      6     6      0
 ---------------------------------------------------------------------------------
 (2) _init_ds1307                                          1     1      0     682
                                              6 COMMON     1     1      0
                        _read_ds1307
                       _write_ds1307
 ---------------------------------------------------------------------------------
 (2) _init_digital_keypad                                  0     0      0       0
 ---------------------------------------------------------------------------------
 (2) _init_clcd                                            0     0      0    1952
            _init_display_controller
 ---------------------------------------------------------------------------------
 (3) _init_display_controller                              2     2      0    1952
                                              6 COMMON     2     2      0
                         _clcd_write
 ---------------------------------------------------------------------------------
 (2) _init_adc                                             0     0      0       0
 ---------------------------------------------------------------------------------
 (1) _download_log                                        19    19      0    1948
                                              6 COMMON     1     1      0
                                              0 BANK0     18    18      0
                             ___bmul
         _eeprom_at24c04_random_read
                            _putchar
                               _puts
 ---------------------------------------------------------------------------------
 (2) _puts                                                 2     0      2     636
                                              3 COMMON     2     0      2
                            _putchar
 ---------------------------------------------------------------------------------
 (3) _putchar                                              1     1      0      31
                                              2 COMMON     1     1      0
 ---------------------------------------------------------------------------------
 (2) _eeprom_at24c04_random_read                           2     2      0     164
                                              4 COMMON     2     2      0
                           _i2c_read
                      _i2c_rep_start
                          _i2c_start
                           _i2c_stop
                          _i2c_write
 ---------------------------------------------------------------------------------
 (2) ___bmul                                               3     2      1     406
                                              2 COMMON     3     2      1
 ---------------------------------------------------------------------------------
 (1) _display_dashboard                                    4     3      1   22274
                                             10 BANK0      4     3      1
                            ___awdiv
                            ___awmod
                         _clcd_print
                         _clcd_putch
                       _display_time
 ---------------------------------------------------------------------------------
 (2) _display_time                                         0     0      0    6135
                         _clcd_putch
                           _get_time
 ---------------------------------------------------------------------------------
 (2) ___awmod                                              6     2      4     793
                                              2 COMMON     6     2      4
 ---------------------------------------------------------------------------------
 (2) ___awdiv                                              8     4      4     805
                                              2 COMMON     8     4      4
 ---------------------------------------------------------------------------------
 (1) _clear_log                                            1     1      0    8379
                                              9 COMMON     1     1      0
                         _clcd_print
 ---------------------------------------------------------------------------------
 (1) _change_time                                          6     5      1   21850
                                             10 BANK0      6     5      1
                            ___lwdiv
                            ___lwmod
                             ___wmul
                         _clcd_print
                         _clcd_putch
                         _clcd_write
                           _get_time
                       _write_ds1307
 ---------------------------------------------------------------------------------
 (3) _write_ds1307                                         2     1      1     453
                                              3 COMMON     2     1      1
                          _i2c_start
                           _i2c_stop
                          _i2c_write
 ---------------------------------------------------------------------------------
 (2) _get_time                                             1     1      0     161
                                              6 COMMON     1     1      0
                        _read_ds1307
 ---------------------------------------------------------------------------------
 (3) _read_ds1307                                          2     2      0     161
                                              4 COMMON     2     2      0
                           _i2c_read
                      _i2c_rep_start
                          _i2c_start
                           _i2c_stop
                          _i2c_write
 ---------------------------------------------------------------------------------
 (3) _i2c_rep_start                                        0     0      0       0
                          _i2c_start
                           _i2c_stop
 ---------------------------------------------------------------------------------
 (3) _i2c_read                                             2     2      0      65
                                              2 COMMON     2     2      0
                  _i2c_wait_for_idle
 ---------------------------------------------------------------------------------
 (2) ___wmul                                               6     2      4    1336
                                              2 COMMON     6     2      4
 ---------------------------------------------------------------------------------
 (2) ___lwmod                                              5     1      4    1672
                                              3 BANK0      5     1      4
                            ___lwdiv (ARG)
 ---------------------------------------------------------------------------------
 (2) ___lwdiv                                              7     3      4    1697
                                              6 COMMON     4     0      4
                                              0 BANK0      3     3      0
                           _read_adc (ARG)
 ---------------------------------------------------------------------------------
 (1) _change_password                                      5     4      1   18517
                                             10 BANK0      5     4      1
                         _clcd_print
                         _clcd_putch
                         _clcd_write
           _eeprom_at24c04_str_write
                            _strncmp
                            _strncpy
 ---------------------------------------------------------------------------------
 (3) _strncpy                                              8     4      4     850
                                              2 COMMON     8     4      4
 ---------------------------------------------------------------------------------
 (2) _strncmp                                              6     3      3     689
                                              2 COMMON     6     3      3
 ---------------------------------------------------------------------------------
 (3) _eeprom_at24c04_str_write                             3     1      2     552
                                              7 COMMON     3     1      2
          _eeprom_at24c04_byte_write
 ---------------------------------------------------------------------------------
 (4) _eeprom_at24c04_byte_write                            4     3      1     183
                                              3 COMMON     4     3      1
                          _i2c_start
                           _i2c_stop
                          _i2c_write
 ---------------------------------------------------------------------------------
 (3) _i2c_write                                            1     1      0      31
                                              2 COMMON     1     1      0
                  _i2c_wait_for_idle
 ---------------------------------------------------------------------------------
 (3) _i2c_stop                                             0     0      0       0
                  _i2c_wait_for_idle
 ---------------------------------------------------------------------------------
 (3) _i2c_start                                            0     0      0       0
                  _i2c_wait_for_idle
 ---------------------------------------------------------------------------------
 (4) _i2c_wait_for_idle                                    0     0      0       0
 ---------------------------------------------------------------------------------
 (2) _clcd_putch                                           2     1      1    5974
                                              8 BANK0      2     1      1
                            ___awdiv (ARG)
                            ___awmod (ARG)
                            ___lwdiv (ARG)
                            ___lwmod (ARG)
                         _clcd_write
 ---------------------------------------------------------------------------------
 (2) _clcd_print                                           3     0      3    8348
                                              6 COMMON     3     0      3
                         _clcd_write
 ---------------------------------------------------------------------------------
 (3) _clcd_write                                           4     3      1    1952
                                              2 COMMON     4     3      1
 ---------------------------------------------------------------------------------
 Estimated maximum stack depth 4
 ---------------------------------------------------------------------------------
 (Depth) Function   	        Calls       Base Space   Used Autos Params    Refs
 ---------------------------------------------------------------------------------
 (8) _isr                                                  2     2      0       0
                                              0 COMMON     2     2      0
 ---------------------------------------------------------------------------------
 Estimated maximum stack depth 8
 ---------------------------------------------------------------------------------

 Call Graph Graphs:

 _main (ROOT)
   ___lwdiv
     _read_adc (ARG)
   _change_password
     _clcd_print
       _clcd_write
     _clcd_putch
       ___awdiv (ARG)
       ___awmod (ARG)
       ___lwdiv (ARG)
       ___lwmod (ARG)
         ___lwdiv (ARG)
       _clcd_write (ARG)
     _clcd_write
     _eeprom_at24c04_str_write
       _eeprom_at24c04_byte_write
         _i2c_start
           _i2c_wait_for_idle
         _i2c_stop
           _i2c_wait_for_idle
         _i2c_write
           _i2c_wait_for_idle
     _strncmp
     _strncpy
   _change_time
     ___lwdiv
     ___lwmod
     ___wmul
     _clcd_print
     _clcd_putch
     _clcd_write
     _get_time
       _read_ds1307
         _i2c_read
           _i2c_wait_for_idle
         _i2c_rep_start
           _i2c_start
           _i2c_stop
         _i2c_start
         _i2c_stop
         _i2c_write
     _write_ds1307
       _i2c_start
       _i2c_stop
       _i2c_write
   _clcd_print
   _clcd_write
   _clear_log
     _clcd_print
   _clear_screen
     _clcd_write
   _display_dashboard
     ___awdiv
     ___awmod
     _clcd_print
     _clcd_putch
     _display_time
       _clcd_putch
       _get_time
   _download_log
     ___bmul
     _eeprom_at24c04_random_read
       _i2c_read
       _i2c_rep_start
       _i2c_start
       _i2c_stop
       _i2c_write
     _putchar
     _puts
       _putchar
   _eeprom_at24c04_str_write
   _init_config
     _init_adc
     _init_clcd
       _init_display_controller
         _clcd_write
     _init_digital_keypad
     _init_ds1307
       _read_ds1307
       _write_ds1307
     _init_i2c
       ___lldiv
     _init_timer2
     _init_uart
       ___lldiv
   _log_car_event
     ___awdiv
     ___awmod
     _get_time
     _log_event
       ___bmul
       _eeprom_at24c04_str_write
     _strncpy
   _login
     ___lwdiv
     ___lwmod
     _clcd_print
     _clcd_putch
     _clcd_write
     _clear_screen
     _eeprom_at24c04_random_read
     _strncmp
   _login_menu
     _clcd_print
     _clcd_putch
     _clear_screen
   _read_adc
   _read_digital_keypad
   _strcpy
   _view_log
     ___bmul
     _clcd_print
     _clcd_putch
     _eeprom_at24c04_random_read

 _isr (ROOT)

 Address spaces:
Name               Size   Autos  Total    Cost      Usage
BANK3               60      0       0       9        0.0%
BITBANK3            60      0       0       8        0.0%
SFR3                 0      0       0       4        0.0%
BITSFR3              0      0       0       4        0.0%
BANK2               60      0       0      11        0.0%
BITBANK2            60      0       0      10        0.0%
SFR2                 0      0       0       5        0.0%
BITSFR2              0      0       0       5        0.0%
BANK1               50      9      3A       7       72.5%
BITBANK1            50      0       0       6        0.0%
SFR1                 0      0       0       2        0.0%
BITSFR1              0      0       0       2        0.0%
BANK0               50     21      4C       5       95.0%
BITBANK0            50      0       0       4        0.0%
SFR0                 0      0       0       1        0.0%
BITSFR0              0      0       0       1        0.0%
COMMON               E      A       C       1       85.7%
BITCOMMON            E      0       0       0        0.0%
CODE                 0      0       0       0        0.0%
DATA                 0      0      92      12        0.0%
ABS                  0      0      92       3        0.0%
NULL                 0      0       0       0        0.0%
STACK                0      0       0       2        0.0%
EEDATA             100      0       0       0        0.0%


Microchip Technology PIC Macro Assembler V2.46 build 20240104201356 
Symbol Table                                                                                   Mon Apr 08 13:13:30 2024

                                      pc 0002                           ___bmul@product 0073  
                         clcd_print@addr 0078                                       l59 14A4  
                                     l77 0226                                       l97 0232  
                                     _GO 00FA                             ___awdiv@sign 0077  
                                     fsr 0004                      ___wmul@multiplicand 0074  
                     login_menu@menu_pos 003C                                      l106 0284  
                                    l220 131E                                      l140 11A1  
                                    l118 0324                                      l223 121D  
                                    l143 11AF                                      l160 123D  
                                    l137 112C                                      l217 11C2  
                                    l163 174E                                      l252 1432  
                                    l261 113D                                      l413 1349  
                                    l270 1259                                      l342 15FA  
                                    l166 1172                                      l182 111F  
                                    l175 13D0                                      l255 1173  
                                    l271 125C                                      l423 0B80  
                                    l272 125E                                      l264 115C  
                                    l169 11EA                                      l345 16A0  
                                    l353 151F                                      l409 0CC0  
                                    l258 117F                                      l290 1374  
                                    l370 0FFF                                      l267 1146  
                                    l275 1151                                      l195 0A64  
                                    l348 16F7                                      l516 118C  
                                    l356 17A6                                      l293 12F3  
                                    l533 1400                                      l439 0E5D  
                                    l471 0645                                      l543 1162  
                                    l551 12CC                                      l359 119D  
                                    l544 1166                                      l545 1167  
                                    l299 13A1                                      l803 17FF  
                                    l637 128E                                      l389 06FE  
                                    l639 12A6                                      l663 11FF  
                                    l673 09DB                                      l917 1565  
                                    l790 0973                                      l927 14E0  
                                    _GIE 005F                                      _RE1 0049  
                                    _RE2 004A                                      _PR2 0092  
                                    _PEN 048A                                      _SEN 0488  
                          ?_display_time 0070                            log_event@addr 0045  
                                    _log 00B9                                      _sec 0033  
                                    _isr 1433                           clcd_putch@addr 004D  
                                    _pos 0068                                      fsr0 0004  
                         clcd_putch@data 004E                                      indf 0000  
                           ___awmod@sign 0077         __end_of_eeprom_at24c04_str_write 13A2  
                     log_car_event@event 0046                       log_car_event@speed 0048  
             change_password@pwd_changed 003B                                     l1103 164A  
                                   l1118 15AD                                     l4000 134B  
                  ??_read_digital_keypad 0072                                     l4010 1361  
                                   l4002 134B                                     l1099 1281  
                                   l4100 0912                                     l4020 164B  
                                   l4012 1367                                     l4004 1350  
                                   l4110 0926                                     l4102 0917  
                                   l4014 136E                                     l4006 1356  
                                   l4030 14FE                                     l4022 14E1  
                                   l4040 1570                                     l4200 1561  
                                   l4120 093C                                     l4112 0928  
                                   l4104 0919                                     l4016 1373  
                                   l4008 135C                                     l4032 1508  
                                   l4024 14E9                                     l5000 020A  
                                   l4050 159F                                     l4210 14B7  
                                   l4130 095F                                     l4122 0940  
                                   l4114 092E                                     l4106 091D  
                                   l4034 1517                                     l4026 14F0  
                                   l5010 021D                                     l5002 0210  
                                   l4060 1615                                     l4052 15FC  
                                   l4044 1590                                     l4036 1567  
                                   l4220 14D6                                     l4212 14BB  
                                   l4204 14A5                                     l4124 0951  
                                   l4116 0931                                     l4132 0965  
                                   l4108 0922                                     l4140 17A7  
                                   l4028 14F2                                     l4300 0A3F  
                                   l5020 0240                                     l5012 0223  
                                   l4070 163C                                     l4054 160A  
                                   l4062 161B                                     l4046 1597  
                                   l4038 156A                                     l4214 14BF  
                                   l4206 14AD                                     l4222 14DC  
                                   l4134 096A                                     l4126 0957  
                                   l4118 0938                                     l4150 17B7  
                                   l4142 17A8                                     l4230 1475  
                                   l4310 0A55                                     l5022 0248  
                                   l4064 1623                                     l4048 159B  
                                   l4216 14C9                                     l4208 14B0  
                                   l4136 096F                                     l4128 0958  
                                   l4160 17D0                                     l4152 17BC  
                                   l4144 17AC                                     l4400 16DC  
                                   l4080 12BC                                     l4240 14A2  
                                   l4232 1484                                     l4312 0A5B  
                                   l4320 1260                                     l5040 027C  
                                   l5024 024E                                     l5016 0227  
                                   l5008 0217                                     l4066 162A  
                                   l4058 160D                                     l4218 14CF  
                                   l4090 129C                                     l4082 1282  
                                   l4162 17D4                                     l4154 17C2  
                                   l4170 17F1                                     l4146 17B1  
                                   l4074 12A7                                     l4330 0A6C  
                                   l4242 14A3                                     l4234 1489  
                                   l4226 146B                                     l4250 1772  
                                   l4410 0E6D                                     l4402 0E61  
                                   l4306 0A47                                     l4322 1262  
                                   l5042 0280                                     l5034 0260  
                                   l5026 0251                                     l5018 0239  
                                   l4068 1630                                     l4180 1524  
                                   l4092 12A2                                     l4084 1284  
                                   l4172 17F6                                     l4164 17DE  
                                   l4156 17C5                                     l4148 17B3  
                                   l4076 12A8                                     l4340 0AA3  
                                   l4332 0A74                                     l4324 0A65  
                                   l4236 148E                                     l4228 1470  
                                   l4252 1789                                     l4244 174F  
                                   l4500 0FD4                                     l4412 0E6E  
                                   l4404 0E67                                     l4420 0E76  
                                   l4260 11A5                                     l4308 0A4C  
                                   l4316 0A63                                     l5060 02DE  
                                   l5052 0298                                     l5044 0289  
                                   l5036 0273                                     l5028 0258  
                                   l4190 153C                                     l4182 152A  
                                   l4086 1288                                     l4174 17FB  
                                   l4166 17E4                                     l4158 17CC  
                                   l4078 12B6                                     l4350 0AB5  
                                   l4342 0AAD                                     l4334 0A7E  
                                   l4326 0A6B                                     l4238 1493  
                                   l4254 17A0                                     l4246 1754  
                                   l4510 0FF0                                     l4502 0FD9  
                                   l4430 0E93                                     l4422 0E7B  
                                   l4414 0E6F                                     l4406 0E69  
                                   l4270 09EC                                     l5070 0303  
                                   l5062 02E6                                     l5054 02B7  
                                   l5046 028E                                     l5038 0278  
                                   l4192 154D                                     l4184 152D  
                                   l4088 1295                                     l5128 058F  
                                   l4096 090D                                     l4168 17EB  
                                   l4360 0AED                                     l4352 0AC4  
                                   l4344 0AB3                                     l4336 0A87  
                                   l4328 0A6C                                     l4256 17A1  
                                   l4248 1762                                     l4512 0FF7  
                                   l4504 0FE4                                     l4432 0E99  
                                   l4440 0EB1                                     l4416 0E72  
                                   l4408 0E6C                                     l4520 064E  
                                   l4280 09FE                                     l4272 09EE  
                                   l4264 09DC                                     l5080 0328  
                                   l5072 0312                                     l5064 02F7  
                                   l5056 02C4                                     l5048 0293  
                                   l3810 113A                                     l4194 1553  
                                   l4186 1534                                     l4178 1520  
                                   l4098 090E                                     l4370 0B14  
                                   l4362 0AF6                                     l4354 0ACF  
                                   l4338 0A8D                                     l4506 0FE7  
                                   l4514 0FFE                                     l4442 0EB7  
                                   l4434 0E9F                                     l4426 0E7D  
                                   l4418 0E74                                     l4530 0659  
                                   l4258 119E                                     l4290 0A13  
                                   l4282 09FF                                     l4274 09F0  
                                   l4266 09E1                                     l4610 0C26  
                                   l5090 0355                                     l5066 02FB  
                                   l5058 02CF                                     l3804 1173  
                                   l3812 113E                                     l3820 1151  
                                   l4700 0DC7                                     l4196 1554  
                                   l4188 1538                                     l3900 15E5  
                                   l4620 133C                                     l4380 0B4B  
                                   l4372 0B1C                                     l4364 0AFE  
                                   l4356 0AD7                                     l4508 0FE9  
                                   l4460 0ED5                                     l4444 0EBD  
                                   l4452 0ECD                                     l4436 0EA8  
                                   l4428 0E8B                                     l4540 066F  
                                   l4532 065E                                     l4524 0650  
                                   l4292 0A22                                     l4284 0A0C  
                                   l4268 09E7                                     l4276 09F3  
                                   l4612 0C33                                     l4604 0C04  
                                   l5084 032B                                     l5068 02FD  
                                   l3806 1179                                     l3814 1143  
                                   l4710 0DF8                                     l4630 0CD1  
                                   l4198 155B                                     l3830 124C  
                                   l3902 15E9                                     l3910 11EC  
                                   l4382 0B54                                     l4374 0B22  
                                   l4366 0B06                                     l4358 0AE4  
                                   l4390 0B70                                     l4462 0EE2  
                                   l4454 0ED3                                     l4446 0EC3  
                                   l4438 0EAE                                     l4534 0666  
                                   l4542 0675                                     l4526 0656  
                                   l4518 0649                                     l4294 0A2B  
                                   l4278 09F9                                     l4614 0CB6  
                                   l4606 0C13                                     l5086 033E  
                                   l5094 035B                                     l3840 121F  
                                   l3808 1135                                     l3816 1148  
                                   l4720 0E1F                                     l4712 0DFB  
                                   l4704 0DD3                                     l4640 0CF3  
                                   l4632 0CD3                                     l3832 1250  
                                   l3824 1152                                     l3904 15F5  
                                   l4800 04FD                                     l4624 1348  
                                   l4616 1320                                     l4392 16A4  
                                   l3920 11F9                                     l3912 11ED  
                                   l4384 0B5C                                     l4376 0B2A  
                                   l4368 0B0C                                     l4480 0F1D  
                                   l4464 0EEA                                     l4560 06C3  
                                   l4544 067B                                     l4552 0688  
                                   l4536 066B                                     l4528 0658  
                                   l4296 0A30                                     l4288 0A0E  
                                   l4608 0C1E                                     l5088 034F  
                                   l5096 0374                                     l3842 1229  
                                   l3818 114D                                     l4722 0E2A  
                                   l4714 0E05                                     l4706 0DDD  
                                   l4650 0CFD                                     l4642 0CF4  
                                   l4634 0CDB                                     l3834 1255  
                                   l3826 123F                                     l3850 131D  
                                   l3906 15F9                                     l4802 0501  
                                   l4810 0512                                     l4618 1336  
                                   l4394 16AF                                     l3922 11FE  
                                   l3914 11F1                                     l4386 0B64  
                                   l4378 0B32                                     l3930 0989  
                                   l4490 0F9C                                     l4482 0F2B  
                                   l4474 0F0B                                     l4466 0EF7  
                                   l4562 06C9                                     l4554 0690  
                                   l4546 0681                                     l4538 066D  
                                   l4298 0A39                                     l4570 0B84  
                                   l3844 122B                                     l3860 1377  
                                   l4724 0E2E                                     l4716 0E0D  
                                   l4732 0E3F                                     l4708 0DE6  
                                   l4660 0D1C                                     l4652 0D02  
                                   l4636 0CE1                                     l4644 0CF6  
                                   l4628 0CC4                                     l3836 125D  
                                   l3828 1244                                     l4820 0533  
                                   l4804 0510                                     l4812 051D  
                                   l4396 16B4                                     l3916 11F5  
                                   l3908 115E                                     l4388 0B6A  
                                   l3940 09B5                                     l3932 0992  
                                   l4484 0F36                                     l4476 0F14  
                                   l4492 0F9F                                     l4468 0F09  
                                   l4564 06F1                                     l4556 0698  
                                   l4548 0683                                     l4580 0BAC  
                                   l4572 0B85                                     l4900 00CE  
                                   l3846 1231                                     l3854 12CE  
                                   l3862 1387                                     l4734 0E46  
                                   l4726 0E3D                                     l4718 0E14  
                                   l4670 0D55                                     l4662 0D23  
                                   l4646 0CFB                                     l4638 0CEF  
                                   l4830 0551                                     l4822 053C  
                                   l4814 0526                                     l4750 037F  
                                   l4398 16C1                                     l3918 11F7  
                                   l3870 1700                                     l3942 09C3  
                                   l3934 0996                                     l3926 0974  
                                   l4494 0FA4                                     l4486 0F42  
                                   l4478 0F18                                     l4566 06FB  
                                   l4558 06AD                                     l4590 0BDC  
                                   l4582 0BB2                                     l4574 0B8D  
                                   l4910 00F3                                     l4902 00D4  
                                   l3856 12EA                                     l3864 138D  
                                   l4736 0E51                                     l4680 0D81  
                                   l4672 0D60                                     l4664 0D2D  
                                   l4656 0D04                                     l3848 12F5  
                                   l4824 053E                                     l4816 0528  
                                   l4760 03F8                                     l4752 0385  
                                   l3960 1126                                     l3880 1726  
                                   l3872 1707                                     l3952 1168  
                                   l3944 09C4                                     l3936 099A  
                                   l3928 0986                                     l4496 0FAF  
                                   l4488 0F94                                     l4592 0BE9  
                                   l4584 0BC0                                     l4576 0BA4  
                                   l4920 0119                                     l4904 00E6  
                                   l3866 1391                                     l3858 1376  
                                   l4690 0DA7                                     l4682 0D8A  
                                   l4674 0D67                                     l4658 0D11  
                                   l4666 0D37                                     l3890 1201  
                                   l4842 057E                                     l4834 0557  
                                   l4826 0548                                     l4850 059A  
                                   l4818 0531                                     l4762 03F9  
                                   l4754 03E6                                     l3882 172D  
                                   l3874 1717                                     l3954 116B  
                                   l3970 11B7                                     l3946 09CD  
                                   l3938 09A3                                     l3962 1401  
                                   l4498 0FC5                                     l4594 0BF1  
                                   l4586 0BC8                                     l4578 0BAA  
                                   l4930 013E                                     l4922 011E  
                                   l4906 00EC                                     l4914 0108  
                                   l4692 0DAD                                     l4684 0D92  
                                   l4676 0D71                                     l4668 0D46  
                                   l3892 15AE                                     l4852 05CC  
                                   l4836 0562                                     l4828 0549  
                                   l4780 045C                                     l4772 0403  
                                   l4764 03FA                                     l4756 03F1  
                                   l3884 1739                                     l3876 171C  
                                   l3868 16F8                                     l3956 116C  
                                   l3972 11BA                                     l3948 09D3  
                                   l3964 1404                                     l3980 1188  
                                   l4596 0BFC                                     l4588 0BD4  
                                   l4932 0142                                     l4924 0129  
                                   l4916 010E                                     l4908 00F1  
                                   l4694 0DB6                                     l4686 0D94  
                                   l4678 0D7B                                     l3894 15C9  
                                   l4854 05D6                                     l4838 0572  
                                   l4790 04D4                                     l4782 0460  
                                   l4774 040F                                     l4758 03F7  
                                   l4766 03FC                                     l3886 1742  
                                   l3878 1723                                     l3958 116D  
                                   l3974 111A                                     l3966 142F  
                                   l3982 1189                                     l3990 1194  
                                   l4598 0C02                                     l4950 016C  
                                   l4942 0155                                     l4934 0144  
                                   l4926 0130                                     l4918 0114  
                                   l4870 0040                                     l3992 13A2  
                                   l3888 11D9                                     l4696 0DBE  
                                   l4688 0D9B                                     l3896 15D5  
                                   l4856 05EE                                     l4848 058A  
                                   l4792 04D8                                     l4784 0468  
                                   l4776 0427                                     l4768 0401  
                                   l3968 11B0                                     l3976 1180  
                                   l3984 13D1                                     l4960 018E  
                                   l4952 0171                                     l4944 015A  
                                   l4928 0137                                     l4936 0148  
                                   l4880 0050                                     l4872 0044  
                                   _ADFM 04FF                                     l3994 13AA  
                                   l4698 0DC0                                     l3898 15D9  
                                   l4858 0608                                     l4794 04E0  
                                   l4786 049C                                     l4778 042C  
                                   l3978 1184                                     l3986 13D5  
                                   l4970 01BB                                     l4962 0199  
                                   l4954 0175                                     l4946 0165  
                                   l4938 014E                                     l4890 008C  
                                   l4882 005A                                     l4874 004A  
                                   l3996 13BA                                     l4796 04E7  
                                   l4788 04A4                                     l3988 118D  
                                   l4980 01C8                                     l4972 01BE  
                                   l4964 01A4                                     l4956 0178  
                                   l4948 0169                                     l4892 0092  
                                   l4884 0066                                     l4876 004A  
                                   ?_isr 0070                                     l3998 13C0  
                                   l4798 04F2                                     l4982 01CD  
                                   l4974 01C3                                     l4966 01A9  
                                   l4958 017D                                     l4990 01E5  
                                   l4894 00AE                                     l4886 0082  
                                   l4878 004B                                     l4984 01DE  
                                   l4968 01B7                                     l4992 01F6  
                                   l4896 00B4                                     l4888 0084  
                                   l4994 01FC                                     l4986 01E2  
                                   l4898 00BA                                     l4996 0202  
                                   l4998 0204                                     _ADON 00F8  
                                   STR_1 08E5                                     STR_2 08EE  
                                   STR_3 08D3                                     STR_4 08D6  
                                   STR_5 08D9                                     STR_6 08DC  
                                   STR_7 08CE                                     STR_8 08E8  
                                   STR_9 0814                                     _CREN 00C4  
                                   u4000 11A5                                     u4001 11A4  
                                   u4010 09E7                                     u4011 09E6  
                                   u4100 0A3F                                     u4020 09EC  
                                   u4101 0A3E                                     u4021 09EB  
                                   u3310 1179                                     u4110 0A4C  
                                   u4030 09F9                                     u3311 1178  
                                   u4111 0A4B                                     u4031 09F8  
                                   u3320 117F                                     u3400 1166  
                                   u4200 0E93                                     u4120 0A55  
                                   u4040 09FE                                     u3321 117E  
                                   u3401 1165                                     u4201 0E92  
                                   u4121 0A54                                     u4041 09FD  
                                   u3330 1255                                     u3410 11F1  
                                   u4210 0E99                                     u4130 0A5B  
                                   u4050 0A0C                                     u3331 1254  
                                   u3411 11F0                                     u4211 0E98  
                                   u4131 0A5A                                     u4051 0A0B  
                                   u3340 1226                                     u3420 11FE  
                                   u3500 1412                                     u4220 0EB7  
                                   u4300 0656                                     u4060 0A13  
                                   u4140 1281                                     u3341 1222  
                                   u3421 11FD                                     u4221 0EB6  
                                   u4301 0655                                     u4061 0A12  
                                   u4141 1280                                     u4150 0A74  
                                   u3430 0986                                     u3510 13E3  
                                   u4230 0EBD                                     u4310 0666  
                                   u4070 0A22                                     u4151 0A73  
                                   u3431 0985                                     u5007 0F28  
                                   u4231 0EBC                                     u4311 0665  
                                   u4071 0A21                                     u4055 0A08  
                                   u3520 13D0                                     u3360 13A1  
                                   u3600 162A                                     u4160 0AE4  
                                   u4240 0ED3                                     u4320 066B  
                                   u4080 0A30                                     u4400 0BC0  
                                   u3521 13CF                                     u3361 13A0  
                                   u3601 1629                                     u4161 0AE3  
                                   u3505 140D                                     u5017 0FCD  
                                   u4241 0ED2                                     u4321 066A  
                                   u4081 0A2F                                     u4401 0BBF  
                                   u3354 1229                                     u3610 1630  
                                   u4170 0B80                                     u3450 099A  
                                   u3530 14F0                                     u4250 0EF7  
                                   u4330 067B                                     u4090 0A39  
                                   u4410 0BDC                                     u3611 162F  
                                   u5107 0509                                     u4171 0B7F  
                                   u3451 0999                                     u3515 13DE  
                                   u3531 14EF                                     u5027 0FFB  
                                   u4251 0EF6                                     u4331 067A  
                                   u4091 0A38                                     u4075 0A1E  
                                   u4411 0BDB                                     u3620 163C  
                                   u4500 0D02                                     u3700 092E  
                                   u3540 1517                                     u4260 0F09  
                                   u4180 0E67                                     u4340 0681  
                                   u4420 0BE9                                     u3621 163B  
                                   u4501 0D01                                     u5117 056A  
                                   u3701 092D                                     u4165 0AE0  
                                   u3445 098B                                     u3541 1516  
                                   u5037 1198                                     u4261 0F08  
                                   u4181 0E66                                     u4341 0680  
                                   u4421 0BE8                                     u4405 0BBC  
                                   u3550 158F                                     u4510 0D11  
                                   u3630 12CC                                     u3470 09B5  
                                   u4270 0F14                                     u4190 0E7B  
                                   u4350 0690                                     u4430 0C33  
                                   u3551 158E                                     u5127 0E36  
                                   u4511 0D10                                     u3375 15CC  
                                   u3631 12CB                                     u4175 0B7C  
                                   u5047 16FC                                     u3471 09B4  
                                   u4271 0F13                                     u4255 0EF3  
                                   u4191 0E7A                                     u4351 068F  
                                   u4431 0C32                                     u3560 1596  
                                   u4520 0D23                                     u3640 1288  
                                   u4600 0385                                     u4440 133C  
                                   u3720 0940                                     u3800 17C2  
                                   u4280 0F9C                                     u4360 06C9  
                                   u5137 12EE                                     u3561 1595  
                                   u4521 0D22                                     u3641 1287  
                                   u3385 15DC                                     u4601 0384  
                                   u4441 133B                                     u3721 093F  
                                   u3801 17C1                                     u5057 170B  
                                   u3465 099C                                     u3545 1513  
                                   u4281 0F9B                                     u4361 06C8  
                                   u4425 0BE5                                     u3570 15AD  
                                   u4530 0D46                                     u4450 0CD1  
                                   u4610 0401                                     u3490 09D3  
                                   u4290 064E                                     u4370 0B8D  
                                   u5147 122E                                     u3571 15AC  
                                   u4531 0D45                                     u4515 0D0D  
                                   u4451 0CD0                                     u3395 15EC  
                                   u4611 0400                                     u3715 0932  
                                   u5067 1719                                     u3491 09D2  
                                   u3475 09B1                                     u4291 064D  
                                   u4435 0C2F                                     u4371 0B8C  
                                   _PEIE 005E                                     u3580 160A  
                                   u4540 0D55                                     u4460 0CD9  
                                   u4700 0550                                     u3740 0951  
                                   u3820 17D4                                     u4380 0BAA  
                                   u5157 1238                                     u3581 1609  
                                   u4541 0D54                                     u4461 0CD7  
                                   u3741 0950                                     u3821 17D3  
                                   u5077 172F                                     u3485 09C5  
                                   u4381 0BA9                                     u3590 1623  
                                   u4550 0D67                                     u4470 0CDA  
                                   u3910 154D                                     u3670 12A2  
                                   u4710 0556                                     u3830 17DE  
                                   u4390 0BB2                                     u3591 1622  
                                   u4551 0D66                                     u4535 0D42  
                                   u3911 154C                                     u3671 12A1  
                                   u3655 128F                                     u4711 0555  
                                   u3735 0941                                     u3831 17DD  
                                   u3815 17C6                                     u5087 173D  
                                   u4391 0BB1                                     u4560 0D9B  
                                   u4480 0CE1                                     u3760 0965  
                                   u3680 0912                                     u4800 0119  
                                   u4720 0082                                     u4561 0D9A  
                                   u4545 0D51                                     u4481 0CE0  
                                   u3905 153D                                     u3665 1296  
                                   u4625 0453                                     u3761 0964  
                                   u3745 094D                                     u3681 0911  
                                   u5097 174B                                     u4801 0118  
                                   u4721 0081                                     u4570 0DC7  
                                   u4490 0CFB                                     u3930 1561  
                                   u4650 0526                                     u3770 096A  
                                   u3690 091D                                     u3850 17F1  
                                   u4810 014E                                     u4730 0092  
                                   u4571 0DC6                                     u4491 0CFA  
                                   u3931 1560                                     u3915 1549  
                                   u4651 0525                                     u4635 048F  
                                   u3771 0969                                     u3755 0959  
                                   u3691 091C                                     u3851 17F0  
                                   u3835 17DA                                     u4811 014D  
                                   u4731 0091                                     u4580 0DE6  
                                   u3940 14AD                                     u4660 0531  
                                   u3860 17F6                                     u3780 17AC  
                                   u4900 02E6                                     u4820 0154  
                                   u4740 00B4                                     _RCEN 048B  
                                   _RCIF 0065                                     u4581 0DE5  
                                   u3925 1555                                     u3941 14AC  
                                   u4661 0530                                     u4645 04CB  
                                   u3861 17F5                                     u3845 17E5  
                                   u3781 17AB                                     u4901 02E5  
                                   u4821 0153                                     u4741 00B3  
                                   u4590 0DF8                                     u3870 152A  
                                   u4670 053C                                     u3790 17B7  
                                   u4910 034F                                     u4830 01FC  
                                   u4750 00BA                                     u4591 0DF7  
                                   u3871 1529                                     u4671 053B  
                                   u3791 17B6                                     u4911 034E  
                                   u4831 01FB                                     u4751 00B9  
                                   u3960 14BF                                     u4680 0548  
                                   u4840 0202                                     u4760 00EC  
                                   u3961 14BE                                     u4681 0547  
                                   u4841 0201                                     u4761 00EB  
                                   u3890 153C                                     u3970 14C9  
                                   u4690 054F                                     u4850 0210  
                                   u4770 00F1                                     u3891 153B  
                                   u3971 14C8                                     u3955 14B1  
                                   u4691 054D                                     u4851 020F  
                                   u4771 00F0                                     u4860 0216  
                                   u4780 010E                                     u3885 152E  
                                   u4861 0215                                     u4781 010D  
                                   u3990 14DC                                     u4870 021D  
                                   u4790 0114                                     u3991 14DB  
                                   u3975 14C5                                     u4871 021C  
                                   u4927 013B                                     u4791 0113  
                                   u4880 0223                                     u3985 14D0  
                                   u4881 0222                                     u4937 01B1  
                                   u4890 02CF                                     u4891 02CE  
                                   u4947 0244                                     u4957 025C  
                                   u4967 02D7                                     u4977 030B  
                                   u4987 0CBC                                     u4997 0E85  
                                   _SPEN 00C7                                     _TXIF 0064  
                                   _R_nW 04A2                                     _gear 00A0  
                                   _main 0040                                     _menu 00AC  
                                   _time 003E                                     btemp 007E  
                                   _puts 12A7                                     start 000C  
                  clear_log@reset_memory 0079                        ___bmul@multiplier 0074  
                    view_log@reset_index 004F                           clcd_write@byte 0075  
                         clcd_write@mode 0072                            _i2c_rep_start 1152  
                                  ??_isr 0070                             ?_init_ds1307 0070  
                                  ?_main 0070                             ?_read_ds1307 0070  
                                  _ACKEN 048C                                    _ACKDT 048D  
                         ??_display_time 007A                          __end_of___awdiv 0974  
                                  STR_10 07F2                                    STR_11 08E2  
                                  STR_12 07E1                                    STR_20 0835  
                                  STR_13 0803                                    STR_21 08AE  
                                  STR_30 0725                                    STR_14 08F1  
                                  STR_22 077B                                    STR_31 0725  
                                  STR_15 08DF                                    STR_23 079D  
                                  STR_40 0731                                    STR_16 08EB  
                                  STR_32 0870                                    STR_24 07D0  
                                  STR_33 0897                                    STR_25 076A  
                                  STR_41 0759                                    STR_17 08B7  
                                  STR_50 0863                                    STR_26 0845  
                                  STR_42 07AE                                    STR_34 0736  
                                  STR_18 08A4                                    STR_27 0814  
                                  STR_35 08C0                                    STR_51 088A  
                                  STR_43 0724                                    STR_19 087D  
                                  STR_52 0733                                    STR_28 0725  
                                  STR_44 0724                                    STR_36 0700  
                        __end_of___awmod 1800                                    STR_53 0733  
                                  STR_37 0732                                    STR_45 078C  
                                  STR_29 0748                                    STR_54 0733  
                                  STR_38 072F                                    STR_46 0855  
                                  STR_39 0729                                    STR_47 07BF  
                                  STR_48 08C7                                    STR_49 0825  
                                  ?_puts 0073                          __end_of___lldiv 09DC  
                            i2c_read@ack 0072                          ___awdiv@divisor 0072  
                        __end_of___lwdiv 1566                                    i1l503 1464  
                        __end_of___lwmod 14E1                             ?_init_config 0070  
                        ___awdiv@counter 0076                                    _RCREG 001A  
                                  _SPBRG 0099                                    _PORTB 0006  
                                  _PORTD 0008                                    _SSPM3 00A3  
                                  _TRISB 0086                                    _TRISD 0088  
                                  _SSPEN 00A5                                    _TXREG 0019  
                           ?_init_timer2 0070                             main@menu_pos 00D1  
                                  _nDONE 00FA                     __end_of_clear_screen 119E  
                                  _login 0E5E                          _change_password 0CC1  
                                  pclath 000A                     login_menu@reset_flag 004F  
     eeprom_at24c04_str_write@memory_loc 0079                                    puts@s 0073  
                        __end_of_putchar 1168                                    status 0003  
                                  wtemp0 007E                          __end_of_strncmp 164B  
                        __end_of_strncpy 15AE  eeprom_at24c04_random_read@received_data 0075  
                       init_ds1307@dummy 0076                          __initialization 000F  
                         ?_i2c_rep_start 0070                             __end_of_main 037C  
                           __end_of_puts 12CD                           login@npassword 00CD  
                       __end_of_i2c_read 125F                         __end_of_i2c_stop 1147  
                          ?_download_log 0070                                   ??_main 0063  
                                 ??_puts 0075                           login@spassword 0055  
                                 _ADRESH 001E                                   ?_login 004F  
                                 _ADRESL 009E                         ___awdiv@dividend 0074  
                           i2c_read@data 0073                                   i1l3760 1448  
                                 i1l3770 1461                                   i1l3762 144A  
                                 i1l3764 1450                                   i1l3772 1463  
                                 i1l3756 1433                                   i1l3766 1456  
                                 i1l3758 1439                                   i1l3768 145C  
                                 u330_20 1461                                   u330_21 1460  
                                 u326_20 1439                                   u326_21 1438  
                                 u327_20 1448                                   u327_21 1447  
                                 u328_20 1450                                   u328_21 144F  
                                 u329_20 145C                                   u329_21 145B  
                           _write_ds1307 1200                                   _TMR2IE 0461  
                                 _TMR2IF 0061                                   _TMR2ON 0092  
            ?_eeprom_at24c04_random_read 0070                                   _SSPADD 0093  
                                 _TRISE1 0449                                   _TRISE2 044A  
                                 _SSPBUF 0013                            login_menu@key 0052  
            __end_of_init_digital_keypad 1120                ?_eeprom_at24c04_str_write 0077  
                       __end_of_get_time 15FB                                   ___bmul 11EB  
                _init_display_controller 16F8                                   ___wmul 1282  
                              ??___awdiv 0076                                ??___awmod 0076  
                              ??___lldiv 0045                                ??___lwdiv 007A  
                              ??___lwmod 007A                         __end_of_init_i2c 1433  
                       __end_of_init_adc 112D                         __end_of_read_adc 11B0  
                         ??_download_log 0076                         ___awdiv@quotient 0078  
                        ___awmod@divisor 0072                            view_log@index 0031  
                        ___awmod@counter 0076                                   main@gr 00D5  
                      change_time@buffer 0054                                   _strcpy 125F  
                      change_time@t_done 0037                                   login@i 003D  
                                 login@j 005A                  __end_of_change_password 0E5E  
                                 saved_w 007E                         __end_of_view_log 0CC1  
                              ??_putchar 0072                                ??_strncmp 0075  
                              ??_strncpy 0076                  __end_of__initialization 003C  
                   __end_of_display_time 16A1                          ??_i2c_rep_start 0072  
                    ___bmul@multiplicand 0072                           __pcstackCOMMON 0070  
                           __pidataBANK0 1120                             __pidataBANK1 08F4  
             ?_eeprom_at24c04_byte_write 0073                            __end_of_login 1000  
                        login@reset_flag 004F                        __end_of_i2c_start 113E  
                      __end_of_i2c_write 1152             change_password@toggle_cursor 003A  
                      _i2c_wait_for_idle 1173                          change_time@wait 0039  
                                ??_login 0050                       ?_i2c_wait_for_idle 0070  
                             __pbssBANK0 0020                               __pbssBANK1 00B9  
                              ?_i2c_read 0070                                ?_i2c_stop 0070  
              ??_init_display_controller 0076                               _clcd_print 13A2  
                    ??_i2c_wait_for_idle 0072                               _clcd_putch 11D6  
                             _clcd_write 121E                               __pmaintext 0040  
                        read_ds1307@addr 0074                            _log_car_event 174F  
                        read_ds1307@data 0075                             _clear_screen 118D  
                                ?___bmul 0072                                  ?___wmul 0072  
                             __pintentry 0004                                  _ACKSTAT 048E  
          eeprom_at24c04_byte_write@data 0073                                  ?_strcpy 0072  
                                _T2CKPS0 0090                                  _T2CKPS1 0091  
            __end_of_read_digital_keypad 0A65                         ?_change_password 004F  
              __end_of_i2c_wait_for_idle 1180                             init_i2c@baud 004B  
                                _SSPCON2 0091                                ?_get_time 0070  
                             __stringtab 1000                               ??_i2c_read 0072  
                             ??_i2c_stop 0072                                ?_init_i2c 004B  
                   __end_of_download_log 0B81                                ?_init_adc 0070  
        read_digital_keypad@long_pressed 0035                                ?_read_adc 0072  
                      __end_of_clear_log 134A                           ?_log_car_event 0046  
                             _login$1111 0053                       change_password@key 0053  
                                ___awdiv 090D                                  ___awmod 17A7  
                              ?_view_log 004F                                  ___lldiv 0974  
                                ___lwdiv 1520                                  ___lwmod 14A5  
                       main@control_flag 00D8                                  __ptext1 0B81  
                                __ptext2 125F                                  __ptext3 09DC  
                                __ptext4 119E                                  __ptext5 0646  
                                __ptext6 0E5E                                  __ptext7 118D  
                                __ptext8 174F                                  __ptext9 14E1  
        __end_of_init_display_controller 174F                        __end_of_init_clcd 1173  
                 read_digital_keypad@key 0072                        __end_of_init_uart 1401  
                       ___awmod@dividend 0074                            ??_change_time 0050  
                         main@reset_flag 00D6                        __end_of_log_event 1520  
                             _login_menu 0646                   display_dashboard@event 0052  
                 display_dashboard@speed 004F                                  _putchar 115D  
                                main@key 00D9                                  clrloop0 112E  
                             ??_get_time 0076                                  _strncmp 15FB  
                                _strncpy 1566                     end_of_initialization 003C  
                 change_password@new_pwd 00C4                               ??_init_i2c 004F  
                             ??_init_adc 0072                               ??_read_adc 0074  
                 change_password@pwd_pos 002F                              ?_clcd_print 0076  
                            ?_clcd_putch 004D                          ___lldiv@divisor 0072  
                            ?_clcd_write 0072                          ___lldiv@counter 004A  
                             ??_view_log 0050                             __pstringtext 0700  
                                strcpy@d 0076                             _display_time 164B  
                          i2c_write@data 0072                            clcd_print@str 0076  
                    __end_of_change_time 0646                          ??_log_car_event 0049  
            ??_eeprom_at24c04_byte_write 0074                           __end_of___bmul 1200  
                         __end_of___wmul 12A7                              view_log@add 005F  
                            view_log@key 0060                              view_log@log 0052  
                         __end_of_strcpy 1282                      start_initialization 000F  
                            ?_login_menu 004F                                _i2c_start 1135  
                            __end_of_isr 146B                                _i2c_write 1147  
               _eeprom_at24c04_str_write 1375                              putchar@data 0072  
                  __end_of_i2c_rep_start 115D                                 ??___bmul 0073  
                               ??___wmul 0076                               init_fetch0 11C3  
                       change_time@blink 0038                            ??_init_ds1307 0076  
                            __pdataBANK0 0066                              __pdataBANK1 00A0  
             read_digital_keypad@pre_key 007A                            ??_read_ds1307 0074  
                           _download_log 0A65                                 ??_strcpy 0074  
                          ??_init_config 007A                    change_time@reset_time 004F  
                          ??_init_timer2 0072                              __pbssCOMMON 007A  
                              ___latbits 0002                            __pcstackBANK0 0045  
                          __pcstackBANK1 00D1                              _change_time 037C  
                             ?_i2c_start 0070                               ?_i2c_write 0070  
              _eeprom_at24c04_byte_write 12CD                           change_time@key 0053  
                       ___lwdiv@dividend 0078                                _clear_log 131F  
                               ?___awdiv 0072                                 ?___awmod 0072  
                      _display_dashboard 16A1                                 ?___lldiv 0072  
                               ?___lwdiv 0076                                _clock_reg 0026  
                               ?___lwmod 0048                       ?_display_dashboard 004F  
                              __pstrings 1000                      __end_of_init_ds1307 11C3  
                    read_adc@adc_reg_val 0074                      ??_display_dashboard 0050  
                    __end_of_read_ds1307 131F                         ___lwdiv@quotient 0046  
                               ?_putchar 0070                                _init_clcd 1168  
                    __end_of_init_config 14A5                                _init_uart 13D1  
                               ?_strncmp 0072                                 ?_strncpy 0072  
                              _log_event 14E1                            ?_write_ds1307 0073  
                    __end_of_init_timer2 118D                 ?_init_display_controller 0070  
                      interrupt_function 0004                           ___wmul@product 0076  
           ??_eeprom_at24c04_random_read 0074                                clear_ram0 112D  
                           ??_clcd_print 0079                             ??_clcd_putch 007A  
                           ??_clcd_write 0073                               ?_clear_log 0070  
              __end_of_display_dashboard 16F8                                main@F1249 00B6  
    eeprom_at24c04_byte_write@memory_loc 0076                            download_log@i 0055  
                   change_time@blink_pos 002B                              __stringbase 1012  
                      ___wmul@multiplier 0072                                main@event 00D2  
             change_password@blink_delay 002D                                main@speed 00D7  
                       view_log@position 005D                              ??_i2c_start 0072  
                     __end_of_clcd_print 13D1                              ??_i2c_write 0072  
                     __end_of_clcd_putch 11EB                       __end_of_clcd_write 123E  
                             ?_init_clcd 0070                               ?_init_uart 004B  
                         ??_write_ds1307 0074                               ?_log_event 0070  
                    _init_digital_keypad 111A                                 _i2c_read 123E  
                               _i2c_stop 113E                 change_password@reset_pwd 004F  
                   ?_init_digital_keypad 0070                              _init_ds1307 11B0  
                            _event_count 0066                       __end_of__stringtab 1012  
                            _read_ds1307 12F4                              _init_config 146B  
                           ??_login_menu 0050                              _init_timer2 1180  
             ??_eeprom_at24c04_str_write 0079                          ___lwdiv@divisor 0076  
                        ___lwdiv@counter 0045                                 __ptext10 146B  
                               __ptext11 13D1                                 __ptext20 0A65  
                               __ptext12 1180                                 __ptext21 12A7  
                               __ptext13 1401                                 __ptext30 037C  
                               __ptext22 115D                                 __ptext14 0974  
                               __ptext31 1200                                 __ptext23 134A  
                               __ptext15 11B0                                 __ptext40 1566  
                               __ptext32 15AE                                 __ptext24 11EB  
                               __ptext16 111A                                 __ptext41 15FB  
                               __ptext33 12F4                                 __ptext25 16A1  
                               __ptext17 1168                                 __ptext50 121E  
                               __ptext42 1375                                 __ptext34 1152  
                               __ptext26 164B                                 __ptext18 16F8  
                               __ptext51 1433                                 __ptext43 12CD  
                               __ptext35 123E                                 __ptext27 17A7  
                               __ptext19 1126                                 __ptext44 1147  
                               __ptext36 1282                                 __ptext28 090D  
                               __ptext45 113E                                 __ptext37 14A5  
                               __ptext29 131F                                 __ptext46 1135  
                               __ptext38 1520             eeprom_at24c04_str_write@data 0077  
                               __ptext47 1173                                 __ptext39 0CC1  
                               __ptext48 11D6                                 __ptext49 13A2  
                               _get_time 15AE                        login@attempts_rem 006A  
                             strcpy@dest 0077                                 _init_i2c 1401  
                               _init_adc 1126                                 _read_adc 119E  
                read_digital_keypad@once 007B                    __end_of_log_car_event 17A7  
                            ??_clear_log 0079                        ??_change_password 0050  
                          ?_clear_screen 0070                       __end_of_login_menu 06FF  
                               _view_log 0B81                    ??_init_digital_keypad 0072  
                              view_log@i 0061                                 isr@count 0029  
                    change_time@new_time 0020                             ?_change_time 004F  
                               init_ram0 11C7                              ??_init_clcd 0078  
                            ??_init_uart 004F                                 login@key 0059  
                            ??_log_event 007A                                 intlevel1 0000  
                          init_uart@baud 004B       __end_of_eeprom_at24c04_random_read 1375  
             _eeprom_at24c04_random_read 134A                         ___lwmod@dividend 004A  
                       ___lldiv@dividend 0076                                strcpy@src 0072  
                              stringcode 100A                           ??_clear_screen 0076  
                              strncpy@cp 0079        __end_of_eeprom_at24c04_byte_write 12F4  
                   __end_of_write_ds1307 121E                      _read_digital_keypad 09DC  
                       ___lldiv@quotient 0046                          ___lwmod@divisor 0048  
                   download_log@position 0051                          ___lwmod@counter 004C  
                               strncmp@l 0077                                 strncmp@n 0073  
                               strncmp@r 0072                                 stringtab 1000  
                               strncpy@d 0078                                 strncpy@n 0074  
                               strncpy@s 0072                              _return_time 006B  
                   ?_read_digital_keypad 0070                         write_ds1307@addr 0074  
                       write_ds1307@data 0073     eeprom_at24c04_random_read@memory_loc 0074  
                      download_log@index 0053                          download_log@add 0050  
                        download_log@log 0045  
